   1               		.file	"lufa.c"
   2               	__SP_H__ = 0x3e
   3               	__SP_L__ = 0x3d
   4               	__SREG__ = 0x3f
   5               	__tmp_reg__ = 0
   6               	__zero_reg__ = 1
   7               		.text
   8               	.Ltext0:
   9               		.cfi_sections	.debug_frame
  10               		.section	.text.keyboard_leds,"ax",@progbits
  12               	keyboard_leds:
  13               	.LFB117:
  14               		.file 1 "../../tmk_core/protocol/lufa/lufa.c"
   1:../../tmk_core/protocol/lufa/lufa.c **** /*
   2:../../tmk_core/protocol/lufa/lufa.c ****  * Copyright 2012 Jun Wako <wakojun@gmail.com>
   3:../../tmk_core/protocol/lufa/lufa.c ****  * This file is based on:
   4:../../tmk_core/protocol/lufa/lufa.c ****  *     LUFA-120219/Demos/Device/Lowlevel/KeyboardMouse
   5:../../tmk_core/protocol/lufa/lufa.c ****  *     LUFA-120219/Demos/Device/Lowlevel/GenericHID
   6:../../tmk_core/protocol/lufa/lufa.c ****  */
   7:../../tmk_core/protocol/lufa/lufa.c **** 
   8:../../tmk_core/protocol/lufa/lufa.c **** /*
   9:../../tmk_core/protocol/lufa/lufa.c ****              LUFA Library
  10:../../tmk_core/protocol/lufa/lufa.c ****      Copyright (C) Dean Camera, 2012.
  11:../../tmk_core/protocol/lufa/lufa.c **** 
  12:../../tmk_core/protocol/lufa/lufa.c ****   dean [at] fourwalledcubicle [dot] com
  13:../../tmk_core/protocol/lufa/lufa.c ****            www.lufa-lib.org
  14:../../tmk_core/protocol/lufa/lufa.c **** */
  15:../../tmk_core/protocol/lufa/lufa.c **** 
  16:../../tmk_core/protocol/lufa/lufa.c **** /*
  17:../../tmk_core/protocol/lufa/lufa.c ****   Copyright 2012  Dean Camera (dean [at] fourwalledcubicle [dot] com)
  18:../../tmk_core/protocol/lufa/lufa.c ****   Copyright 2010  Denver Gingerich (denver [at] ossguy [dot] com)
  19:../../tmk_core/protocol/lufa/lufa.c **** 
  20:../../tmk_core/protocol/lufa/lufa.c ****   Permission to use, copy, modify, distribute, and sell this
  21:../../tmk_core/protocol/lufa/lufa.c ****   software and its documentation for any purpose is hereby granted
  22:../../tmk_core/protocol/lufa/lufa.c ****   without fee, provided that the above copyright notice appear in
  23:../../tmk_core/protocol/lufa/lufa.c ****   all copies and that both that the copyright notice and this
  24:../../tmk_core/protocol/lufa/lufa.c ****   permission notice and warranty disclaimer appear in supporting
  25:../../tmk_core/protocol/lufa/lufa.c ****   documentation, and that the name of the author not be used in
  26:../../tmk_core/protocol/lufa/lufa.c ****   advertising or publicity pertaining to distribution of the
  27:../../tmk_core/protocol/lufa/lufa.c ****   software without specific, written prior permission.
  28:../../tmk_core/protocol/lufa/lufa.c **** 
  29:../../tmk_core/protocol/lufa/lufa.c ****   The author disclaim all warranties with regard to this
  30:../../tmk_core/protocol/lufa/lufa.c ****   software, including all implied warranties of merchantability
  31:../../tmk_core/protocol/lufa/lufa.c ****   and fitness.  In no event shall the author be liable for any
  32:../../tmk_core/protocol/lufa/lufa.c ****   special, indirect or consequential damages or any damages
  33:../../tmk_core/protocol/lufa/lufa.c ****   whatsoever resulting from loss of use, data or profits, whether
  34:../../tmk_core/protocol/lufa/lufa.c ****   in an action of contract, negligence or other tortious action,
  35:../../tmk_core/protocol/lufa/lufa.c ****   arising out of or in connection with the use or performance of
  36:../../tmk_core/protocol/lufa/lufa.c ****   this software.
  37:../../tmk_core/protocol/lufa/lufa.c **** */
  38:../../tmk_core/protocol/lufa/lufa.c **** 
  39:../../tmk_core/protocol/lufa/lufa.c **** #include "report.h"
  40:../../tmk_core/protocol/lufa/lufa.c **** #include "host.h"
  41:../../tmk_core/protocol/lufa/lufa.c **** #include "host_driver.h"
  42:../../tmk_core/protocol/lufa/lufa.c **** #include "keyboard.h"
  43:../../tmk_core/protocol/lufa/lufa.c **** #include "action.h"
  44:../../tmk_core/protocol/lufa/lufa.c **** #include "led.h"
  45:../../tmk_core/protocol/lufa/lufa.c **** #include "sendchar.h"
  46:../../tmk_core/protocol/lufa/lufa.c **** #include "debug.h"
  47:../../tmk_core/protocol/lufa/lufa.c **** #ifdef SLEEP_LED_ENABLE
  48:../../tmk_core/protocol/lufa/lufa.c **** #include "sleep_led.h"
  49:../../tmk_core/protocol/lufa/lufa.c **** #endif
  50:../../tmk_core/protocol/lufa/lufa.c **** #include "suspend.h"
  51:../../tmk_core/protocol/lufa/lufa.c **** #include "hook.h"
  52:../../tmk_core/protocol/lufa/lufa.c **** 
  53:../../tmk_core/protocol/lufa/lufa.c **** #ifdef LUFA_DEBUG_SUART
  54:../../tmk_core/protocol/lufa/lufa.c **** #include "avr/suart.h"
  55:../../tmk_core/protocol/lufa/lufa.c **** #endif
  56:../../tmk_core/protocol/lufa/lufa.c **** 
  57:../../tmk_core/protocol/lufa/lufa.c **** #include "matrix.h"
  58:../../tmk_core/protocol/lufa/lufa.c **** #include "descriptor.h"
  59:../../tmk_core/protocol/lufa/lufa.c **** #include "lufa.h"
  60:../../tmk_core/protocol/lufa/lufa.c **** 
  61:../../tmk_core/protocol/lufa/lufa.c **** 
  62:../../tmk_core/protocol/lufa/lufa.c **** //#define LUFA_DEBUG
  63:../../tmk_core/protocol/lufa/lufa.c **** 
  64:../../tmk_core/protocol/lufa/lufa.c **** 
  65:../../tmk_core/protocol/lufa/lufa.c **** uint8_t keyboard_idle = 0;
  66:../../tmk_core/protocol/lufa/lufa.c **** /* 0: Boot Protocol, 1: Report Protocol(default) */
  67:../../tmk_core/protocol/lufa/lufa.c **** uint8_t keyboard_protocol = 1;
  68:../../tmk_core/protocol/lufa/lufa.c **** static uint8_t keyboard_led_stats = 0;
  69:../../tmk_core/protocol/lufa/lufa.c **** 
  70:../../tmk_core/protocol/lufa/lufa.c **** static report_keyboard_t keyboard_report_sent;
  71:../../tmk_core/protocol/lufa/lufa.c **** 
  72:../../tmk_core/protocol/lufa/lufa.c **** 
  73:../../tmk_core/protocol/lufa/lufa.c **** /* Host driver */
  74:../../tmk_core/protocol/lufa/lufa.c **** static uint8_t keyboard_leds(void);
  75:../../tmk_core/protocol/lufa/lufa.c **** static void send_keyboard(report_keyboard_t *report);
  76:../../tmk_core/protocol/lufa/lufa.c **** static void send_mouse(report_mouse_t *report);
  77:../../tmk_core/protocol/lufa/lufa.c **** static void send_system(uint16_t data);
  78:../../tmk_core/protocol/lufa/lufa.c **** static void send_consumer(uint16_t data);
  79:../../tmk_core/protocol/lufa/lufa.c **** host_driver_t lufa_driver = {
  80:../../tmk_core/protocol/lufa/lufa.c ****     keyboard_leds,
  81:../../tmk_core/protocol/lufa/lufa.c ****     send_keyboard,
  82:../../tmk_core/protocol/lufa/lufa.c ****     send_mouse,
  83:../../tmk_core/protocol/lufa/lufa.c ****     send_system,
  84:../../tmk_core/protocol/lufa/lufa.c ****     send_consumer
  85:../../tmk_core/protocol/lufa/lufa.c **** };
  86:../../tmk_core/protocol/lufa/lufa.c **** 
  87:../../tmk_core/protocol/lufa/lufa.c **** 
  88:../../tmk_core/protocol/lufa/lufa.c **** /*******************************************************************************
  89:../../tmk_core/protocol/lufa/lufa.c ****  * Console
  90:../../tmk_core/protocol/lufa/lufa.c ****  ******************************************************************************/
  91:../../tmk_core/protocol/lufa/lufa.c **** #ifdef CONSOLE_ENABLE
  92:../../tmk_core/protocol/lufa/lufa.c **** static void Console_Task(void)
  93:../../tmk_core/protocol/lufa/lufa.c **** {
  94:../../tmk_core/protocol/lufa/lufa.c ****     /* Device must be connected and configured for the task to run */
  95:../../tmk_core/protocol/lufa/lufa.c ****     if (USB_DeviceState != DEVICE_STATE_Configured)
  96:../../tmk_core/protocol/lufa/lufa.c ****         return;
  97:../../tmk_core/protocol/lufa/lufa.c **** 
  98:../../tmk_core/protocol/lufa/lufa.c ****     uint8_t ep = Endpoint_GetCurrentEndpoint();
  99:../../tmk_core/protocol/lufa/lufa.c **** 
 100:../../tmk_core/protocol/lufa/lufa.c **** #if 0
 101:../../tmk_core/protocol/lufa/lufa.c ****     // TODO: impl receivechar()/recvchar()
 102:../../tmk_core/protocol/lufa/lufa.c ****     Endpoint_SelectEndpoint(CONSOLE_OUT_EPNUM);
 103:../../tmk_core/protocol/lufa/lufa.c **** 
 104:../../tmk_core/protocol/lufa/lufa.c ****     /* Check to see if a packet has been sent from the host */
 105:../../tmk_core/protocol/lufa/lufa.c ****     if (Endpoint_IsOUTReceived())
 106:../../tmk_core/protocol/lufa/lufa.c ****     {
 107:../../tmk_core/protocol/lufa/lufa.c ****         /* Check to see if the packet contains data */
 108:../../tmk_core/protocol/lufa/lufa.c ****         if (Endpoint_IsReadWriteAllowed())
 109:../../tmk_core/protocol/lufa/lufa.c ****         {
 110:../../tmk_core/protocol/lufa/lufa.c ****             /* Create a temporary buffer to hold the read in report from the host */
 111:../../tmk_core/protocol/lufa/lufa.c ****             uint8_t ConsoleData[CONSOLE_EPSIZE];
 112:../../tmk_core/protocol/lufa/lufa.c **** 
 113:../../tmk_core/protocol/lufa/lufa.c ****             /* Read Console Report Data */
 114:../../tmk_core/protocol/lufa/lufa.c ****             Endpoint_Read_Stream_LE(&ConsoleData, sizeof(ConsoleData), NULL);
 115:../../tmk_core/protocol/lufa/lufa.c **** 
 116:../../tmk_core/protocol/lufa/lufa.c ****             /* Process Console Report Data */
 117:../../tmk_core/protocol/lufa/lufa.c ****             //ProcessConsoleHIDReport(ConsoleData);
 118:../../tmk_core/protocol/lufa/lufa.c ****         }
 119:../../tmk_core/protocol/lufa/lufa.c **** 
 120:../../tmk_core/protocol/lufa/lufa.c ****         /* Finalize the stream transfer to send the last packet */
 121:../../tmk_core/protocol/lufa/lufa.c ****         Endpoint_ClearOUT();
 122:../../tmk_core/protocol/lufa/lufa.c ****     }
 123:../../tmk_core/protocol/lufa/lufa.c **** #endif
 124:../../tmk_core/protocol/lufa/lufa.c **** 
 125:../../tmk_core/protocol/lufa/lufa.c ****     /* IN packet */
 126:../../tmk_core/protocol/lufa/lufa.c ****     Endpoint_SelectEndpoint(CONSOLE_IN_EPNUM);
 127:../../tmk_core/protocol/lufa/lufa.c ****     if (!Endpoint_IsEnabled() || !Endpoint_IsConfigured()) {
 128:../../tmk_core/protocol/lufa/lufa.c ****         Endpoint_SelectEndpoint(ep);
 129:../../tmk_core/protocol/lufa/lufa.c ****         return;
 130:../../tmk_core/protocol/lufa/lufa.c ****     }
 131:../../tmk_core/protocol/lufa/lufa.c **** 
 132:../../tmk_core/protocol/lufa/lufa.c ****     // fill empty bank
 133:../../tmk_core/protocol/lufa/lufa.c ****     while (Endpoint_IsReadWriteAllowed())
 134:../../tmk_core/protocol/lufa/lufa.c ****         Endpoint_Write_8(0);
 135:../../tmk_core/protocol/lufa/lufa.c **** 
 136:../../tmk_core/protocol/lufa/lufa.c ****     // flash senchar packet
 137:../../tmk_core/protocol/lufa/lufa.c ****     if (Endpoint_IsINReady()) {
 138:../../tmk_core/protocol/lufa/lufa.c ****         Endpoint_ClearIN();
 139:../../tmk_core/protocol/lufa/lufa.c ****     }
 140:../../tmk_core/protocol/lufa/lufa.c **** 
 141:../../tmk_core/protocol/lufa/lufa.c ****     Endpoint_SelectEndpoint(ep);
 142:../../tmk_core/protocol/lufa/lufa.c **** }
 143:../../tmk_core/protocol/lufa/lufa.c **** #else
 144:../../tmk_core/protocol/lufa/lufa.c **** static void Console_Task(void)
 145:../../tmk_core/protocol/lufa/lufa.c **** {
 146:../../tmk_core/protocol/lufa/lufa.c **** }
 147:../../tmk_core/protocol/lufa/lufa.c **** #endif
 148:../../tmk_core/protocol/lufa/lufa.c **** 
 149:../../tmk_core/protocol/lufa/lufa.c **** 
 150:../../tmk_core/protocol/lufa/lufa.c **** /*******************************************************************************
 151:../../tmk_core/protocol/lufa/lufa.c ****  * USB Events
 152:../../tmk_core/protocol/lufa/lufa.c ****  ******************************************************************************/
 153:../../tmk_core/protocol/lufa/lufa.c **** /*
 154:../../tmk_core/protocol/lufa/lufa.c ****  * Event Order of Plug in:
 155:../../tmk_core/protocol/lufa/lufa.c ****  * 0) EVENT_USB_Device_Connect
 156:../../tmk_core/protocol/lufa/lufa.c ****  * 1) EVENT_USB_Device_Suspend
 157:../../tmk_core/protocol/lufa/lufa.c ****  * 2) EVENT_USB_Device_Reset
 158:../../tmk_core/protocol/lufa/lufa.c ****  * 3) EVENT_USB_Device_Wake
 159:../../tmk_core/protocol/lufa/lufa.c **** */
 160:../../tmk_core/protocol/lufa/lufa.c **** void EVENT_USB_Device_Connect(void)
 161:../../tmk_core/protocol/lufa/lufa.c **** {
 162:../../tmk_core/protocol/lufa/lufa.c ****     print("[C]");
 163:../../tmk_core/protocol/lufa/lufa.c ****     /* For battery powered device */
 164:../../tmk_core/protocol/lufa/lufa.c ****     if (!USB_IsInitialized) {
 165:../../tmk_core/protocol/lufa/lufa.c ****         USB_Disable();
 166:../../tmk_core/protocol/lufa/lufa.c ****         USB_Init();
 167:../../tmk_core/protocol/lufa/lufa.c ****         USB_Device_EnableSOFEvents();
 168:../../tmk_core/protocol/lufa/lufa.c ****     }
 169:../../tmk_core/protocol/lufa/lufa.c **** }
 170:../../tmk_core/protocol/lufa/lufa.c **** 
 171:../../tmk_core/protocol/lufa/lufa.c **** void EVENT_USB_Device_Disconnect(void)
 172:../../tmk_core/protocol/lufa/lufa.c **** {
 173:../../tmk_core/protocol/lufa/lufa.c ****     print("[D]");
 174:../../tmk_core/protocol/lufa/lufa.c ****     /* For battery powered device */
 175:../../tmk_core/protocol/lufa/lufa.c ****     USB_IsInitialized = false;
 176:../../tmk_core/protocol/lufa/lufa.c **** /* TODO: This doesn't work. After several plug in/outs can not be enumerated.
 177:../../tmk_core/protocol/lufa/lufa.c ****     if (USB_IsInitialized) {
 178:../../tmk_core/protocol/lufa/lufa.c ****         USB_Disable();  // Disable all interrupts
 179:../../tmk_core/protocol/lufa/lufa.c **** 	USB_Controller_Enable();
 180:../../tmk_core/protocol/lufa/lufa.c ****         USB_INT_Enable(USB_INT_VBUSTI);
 181:../../tmk_core/protocol/lufa/lufa.c ****     }
 182:../../tmk_core/protocol/lufa/lufa.c **** */
 183:../../tmk_core/protocol/lufa/lufa.c **** }
 184:../../tmk_core/protocol/lufa/lufa.c **** 
 185:../../tmk_core/protocol/lufa/lufa.c **** void EVENT_USB_Device_Reset(void)
 186:../../tmk_core/protocol/lufa/lufa.c **** {
 187:../../tmk_core/protocol/lufa/lufa.c **** #ifdef LUFA_DEBUG
 188:../../tmk_core/protocol/lufa/lufa.c ****     print("[R]");
 189:../../tmk_core/protocol/lufa/lufa.c **** #endif
 190:../../tmk_core/protocol/lufa/lufa.c **** }
 191:../../tmk_core/protocol/lufa/lufa.c **** 
 192:../../tmk_core/protocol/lufa/lufa.c **** void EVENT_USB_Device_Suspend()
 193:../../tmk_core/protocol/lufa/lufa.c **** {
 194:../../tmk_core/protocol/lufa/lufa.c **** #ifdef LUFA_DEBUG
 195:../../tmk_core/protocol/lufa/lufa.c ****     print("[S]");
 196:../../tmk_core/protocol/lufa/lufa.c **** #endif
 197:../../tmk_core/protocol/lufa/lufa.c ****     hook_usb_suspend_entry();
 198:../../tmk_core/protocol/lufa/lufa.c **** }
 199:../../tmk_core/protocol/lufa/lufa.c **** 
 200:../../tmk_core/protocol/lufa/lufa.c **** void EVENT_USB_Device_WakeUp()
 201:../../tmk_core/protocol/lufa/lufa.c **** {
 202:../../tmk_core/protocol/lufa/lufa.c **** #ifdef LUFA_DEBUG
 203:../../tmk_core/protocol/lufa/lufa.c ****     print("[W]");
 204:../../tmk_core/protocol/lufa/lufa.c **** #endif
 205:../../tmk_core/protocol/lufa/lufa.c ****     hook_usb_wakeup();
 206:../../tmk_core/protocol/lufa/lufa.c **** }
 207:../../tmk_core/protocol/lufa/lufa.c **** 
 208:../../tmk_core/protocol/lufa/lufa.c **** #ifdef CONSOLE_ENABLE
 209:../../tmk_core/protocol/lufa/lufa.c **** static bool console_flush = false;
 210:../../tmk_core/protocol/lufa/lufa.c **** #define CONSOLE_FLUSH_SET(b)   do { \
 211:../../tmk_core/protocol/lufa/lufa.c ****     uint8_t sreg = SREG; cli(); console_flush = b; SREG = sreg; \
 212:../../tmk_core/protocol/lufa/lufa.c **** } while (0)
 213:../../tmk_core/protocol/lufa/lufa.c **** 
 214:../../tmk_core/protocol/lufa/lufa.c **** // called every 1ms
 215:../../tmk_core/protocol/lufa/lufa.c **** void EVENT_USB_Device_StartOfFrame(void)
 216:../../tmk_core/protocol/lufa/lufa.c **** {
 217:../../tmk_core/protocol/lufa/lufa.c ****     static uint8_t count;
 218:../../tmk_core/protocol/lufa/lufa.c ****     if (++count % 50) return;
 219:../../tmk_core/protocol/lufa/lufa.c ****     count = 0;
 220:../../tmk_core/protocol/lufa/lufa.c **** 
 221:../../tmk_core/protocol/lufa/lufa.c ****     if (!console_flush) return;
 222:../../tmk_core/protocol/lufa/lufa.c ****     Console_Task();
 223:../../tmk_core/protocol/lufa/lufa.c ****     console_flush = false;
 224:../../tmk_core/protocol/lufa/lufa.c **** }
 225:../../tmk_core/protocol/lufa/lufa.c **** #endif
 226:../../tmk_core/protocol/lufa/lufa.c **** 
 227:../../tmk_core/protocol/lufa/lufa.c **** /** Event handler for the USB_ConfigurationChanged event.
 228:../../tmk_core/protocol/lufa/lufa.c ****  * This is fired when the host sets the current configuration of the USB device after enumeration.
 229:../../tmk_core/protocol/lufa/lufa.c ****  *
 230:../../tmk_core/protocol/lufa/lufa.c ****  * ATMega32u2 supports dual bank(ping-pong mode) only on endpoint 3 and 4,
 231:../../tmk_core/protocol/lufa/lufa.c ****  * it is safe to use singl bank for all endpoints.
 232:../../tmk_core/protocol/lufa/lufa.c ****  */
 233:../../tmk_core/protocol/lufa/lufa.c **** void EVENT_USB_Device_ConfigurationChanged(void)
 234:../../tmk_core/protocol/lufa/lufa.c **** {
 235:../../tmk_core/protocol/lufa/lufa.c **** #ifdef LUFA_DEBUG
 236:../../tmk_core/protocol/lufa/lufa.c ****     print("[c]");
 237:../../tmk_core/protocol/lufa/lufa.c **** #endif
 238:../../tmk_core/protocol/lufa/lufa.c ****     bool ConfigSuccess = true;
 239:../../tmk_core/protocol/lufa/lufa.c **** 
 240:../../tmk_core/protocol/lufa/lufa.c ****     /* Setup Keyboard HID Report Endpoints */
 241:../../tmk_core/protocol/lufa/lufa.c ****     ConfigSuccess &= ENDPOINT_CONFIG(KEYBOARD_IN_EPNUM, EP_TYPE_INTERRUPT, ENDPOINT_DIR_IN,
 242:../../tmk_core/protocol/lufa/lufa.c ****                                      KEYBOARD_EPSIZE, ENDPOINT_BANK_SINGLE);
 243:../../tmk_core/protocol/lufa/lufa.c **** 
 244:../../tmk_core/protocol/lufa/lufa.c **** #ifdef MOUSE_ENABLE
 245:../../tmk_core/protocol/lufa/lufa.c ****     /* Setup Mouse HID Report Endpoint */
 246:../../tmk_core/protocol/lufa/lufa.c ****     ConfigSuccess &= ENDPOINT_CONFIG(MOUSE_IN_EPNUM, EP_TYPE_INTERRUPT, ENDPOINT_DIR_IN,
 247:../../tmk_core/protocol/lufa/lufa.c ****                                      MOUSE_EPSIZE, ENDPOINT_BANK_SINGLE);
 248:../../tmk_core/protocol/lufa/lufa.c **** #endif
 249:../../tmk_core/protocol/lufa/lufa.c **** 
 250:../../tmk_core/protocol/lufa/lufa.c **** #ifdef EXTRAKEY_ENABLE
 251:../../tmk_core/protocol/lufa/lufa.c ****     /* Setup Extra HID Report Endpoint */
 252:../../tmk_core/protocol/lufa/lufa.c ****     ConfigSuccess &= ENDPOINT_CONFIG(EXTRAKEY_IN_EPNUM, EP_TYPE_INTERRUPT, ENDPOINT_DIR_IN,
 253:../../tmk_core/protocol/lufa/lufa.c ****                                      EXTRAKEY_EPSIZE, ENDPOINT_BANK_SINGLE);
 254:../../tmk_core/protocol/lufa/lufa.c **** #endif
 255:../../tmk_core/protocol/lufa/lufa.c **** 
 256:../../tmk_core/protocol/lufa/lufa.c **** #ifdef CONSOLE_ENABLE
 257:../../tmk_core/protocol/lufa/lufa.c ****     /* Setup Console HID Report Endpoints */
 258:../../tmk_core/protocol/lufa/lufa.c ****     ConfigSuccess &= ENDPOINT_CONFIG(CONSOLE_IN_EPNUM, EP_TYPE_INTERRUPT, ENDPOINT_DIR_IN,
 259:../../tmk_core/protocol/lufa/lufa.c ****                                      CONSOLE_EPSIZE, ENDPOINT_BANK_SINGLE);
 260:../../tmk_core/protocol/lufa/lufa.c **** #if 0
 261:../../tmk_core/protocol/lufa/lufa.c ****     ConfigSuccess &= ENDPOINT_CONFIG(CONSOLE_OUT_EPNUM, EP_TYPE_INTERRUPT, ENDPOINT_DIR_OUT,
 262:../../tmk_core/protocol/lufa/lufa.c ****                                      CONSOLE_EPSIZE, ENDPOINT_BANK_SINGLE);
 263:../../tmk_core/protocol/lufa/lufa.c **** #endif
 264:../../tmk_core/protocol/lufa/lufa.c **** #endif
 265:../../tmk_core/protocol/lufa/lufa.c **** 
 266:../../tmk_core/protocol/lufa/lufa.c **** #ifdef NKRO_ENABLE
 267:../../tmk_core/protocol/lufa/lufa.c ****     /* Setup NKRO HID Report Endpoints */
 268:../../tmk_core/protocol/lufa/lufa.c ****     ConfigSuccess &= ENDPOINT_CONFIG(NKRO_IN_EPNUM, EP_TYPE_INTERRUPT, ENDPOINT_DIR_IN,
 269:../../tmk_core/protocol/lufa/lufa.c ****                                      NKRO_EPSIZE, ENDPOINT_BANK_SINGLE);
 270:../../tmk_core/protocol/lufa/lufa.c **** #endif
 271:../../tmk_core/protocol/lufa/lufa.c **** }
 272:../../tmk_core/protocol/lufa/lufa.c **** 
 273:../../tmk_core/protocol/lufa/lufa.c **** /*
 274:../../tmk_core/protocol/lufa/lufa.c **** Appendix G: HID Request Support Requirements
 275:../../tmk_core/protocol/lufa/lufa.c **** 
 276:../../tmk_core/protocol/lufa/lufa.c **** The following table enumerates the requests that need to be supported by various types of HID class
 277:../../tmk_core/protocol/lufa/lufa.c **** 
 278:../../tmk_core/protocol/lufa/lufa.c **** Device type     GetReport   SetReport   GetIdle     SetIdle     GetProtocol SetProtocol
 279:../../tmk_core/protocol/lufa/lufa.c **** ------------------------------------------------------------------------------------------
 280:../../tmk_core/protocol/lufa/lufa.c **** Boot Mouse      Required    Optional    Optional    Optional    Required    Required
 281:../../tmk_core/protocol/lufa/lufa.c **** Non-Boot Mouse  Required    Optional    Optional    Optional    Optional    Optional
 282:../../tmk_core/protocol/lufa/lufa.c **** Boot Keyboard   Required    Optional    Required    Required    Required    Required
 283:../../tmk_core/protocol/lufa/lufa.c **** Non-Boot Keybrd Required    Optional    Required    Required    Optional    Optional
 284:../../tmk_core/protocol/lufa/lufa.c **** Other Device    Required    Optional    Optional    Optional    Optional    Optional
 285:../../tmk_core/protocol/lufa/lufa.c **** */
 286:../../tmk_core/protocol/lufa/lufa.c **** /** Event handler for the USB_ControlRequest event.
 287:../../tmk_core/protocol/lufa/lufa.c ****  *  This is fired before passing along unhandled control requests to the library for processing int
 288:../../tmk_core/protocol/lufa/lufa.c ****  */
 289:../../tmk_core/protocol/lufa/lufa.c **** void EVENT_USB_Device_ControlRequest(void)
 290:../../tmk_core/protocol/lufa/lufa.c **** {
 291:../../tmk_core/protocol/lufa/lufa.c ****     uint8_t* ReportData = NULL;
 292:../../tmk_core/protocol/lufa/lufa.c ****     uint8_t  ReportSize = 0;
 293:../../tmk_core/protocol/lufa/lufa.c **** 
 294:../../tmk_core/protocol/lufa/lufa.c ****     /* Handle HID Class specific requests */
 295:../../tmk_core/protocol/lufa/lufa.c ****     switch (USB_ControlRequest.bRequest)
 296:../../tmk_core/protocol/lufa/lufa.c ****     {
 297:../../tmk_core/protocol/lufa/lufa.c ****         case HID_REQ_GetReport:
 298:../../tmk_core/protocol/lufa/lufa.c ****             if (USB_ControlRequest.bmRequestType == (REQDIR_DEVICETOHOST | REQTYPE_CLASS | REQREC_I
 299:../../tmk_core/protocol/lufa/lufa.c ****             {
 300:../../tmk_core/protocol/lufa/lufa.c ****                 Endpoint_ClearSETUP();
 301:../../tmk_core/protocol/lufa/lufa.c **** 
 302:../../tmk_core/protocol/lufa/lufa.c ****                 // Interface
 303:../../tmk_core/protocol/lufa/lufa.c ****                 switch (USB_ControlRequest.wIndex) {
 304:../../tmk_core/protocol/lufa/lufa.c ****                 case KEYBOARD_INTERFACE:
 305:../../tmk_core/protocol/lufa/lufa.c ****                     // TODO: test/check
 306:../../tmk_core/protocol/lufa/lufa.c ****                     ReportData = (uint8_t*)&keyboard_report_sent;
 307:../../tmk_core/protocol/lufa/lufa.c ****                     ReportSize = sizeof(keyboard_report_sent);
 308:../../tmk_core/protocol/lufa/lufa.c ****                     break;
 309:../../tmk_core/protocol/lufa/lufa.c ****                 }
 310:../../tmk_core/protocol/lufa/lufa.c **** 
 311:../../tmk_core/protocol/lufa/lufa.c ****                 /* Write the report data to the control endpoint */
 312:../../tmk_core/protocol/lufa/lufa.c ****                 Endpoint_Write_Control_Stream_LE(ReportData, ReportSize);
 313:../../tmk_core/protocol/lufa/lufa.c ****                 Endpoint_ClearOUT();
 314:../../tmk_core/protocol/lufa/lufa.c **** #ifdef LUFA_DEBUG
 315:../../tmk_core/protocol/lufa/lufa.c ****                 xprintf("[r%d]", USB_ControlRequest.wIndex);
 316:../../tmk_core/protocol/lufa/lufa.c **** #endif
 317:../../tmk_core/protocol/lufa/lufa.c ****             }
 318:../../tmk_core/protocol/lufa/lufa.c **** 
 319:../../tmk_core/protocol/lufa/lufa.c ****             break;
 320:../../tmk_core/protocol/lufa/lufa.c ****         case HID_REQ_SetReport:
 321:../../tmk_core/protocol/lufa/lufa.c ****             if (USB_ControlRequest.bmRequestType == (REQDIR_HOSTTODEVICE | REQTYPE_CLASS | REQREC_I
 322:../../tmk_core/protocol/lufa/lufa.c ****             {
 323:../../tmk_core/protocol/lufa/lufa.c **** 
 324:../../tmk_core/protocol/lufa/lufa.c ****                 // Interface
 325:../../tmk_core/protocol/lufa/lufa.c ****                 switch (USB_ControlRequest.wIndex) {
 326:../../tmk_core/protocol/lufa/lufa.c ****                 case KEYBOARD_INTERFACE:
 327:../../tmk_core/protocol/lufa/lufa.c **** #ifdef NKRO_ENABLE
 328:../../tmk_core/protocol/lufa/lufa.c ****                 case NKRO_INTERFACE:
 329:../../tmk_core/protocol/lufa/lufa.c **** #endif
 330:../../tmk_core/protocol/lufa/lufa.c ****                     Endpoint_ClearSETUP();
 331:../../tmk_core/protocol/lufa/lufa.c **** 
 332:../../tmk_core/protocol/lufa/lufa.c ****                     while (!(Endpoint_IsOUTReceived())) {
 333:../../tmk_core/protocol/lufa/lufa.c ****                         if (USB_DeviceState == DEVICE_STATE_Unattached)
 334:../../tmk_core/protocol/lufa/lufa.c ****                           return;
 335:../../tmk_core/protocol/lufa/lufa.c ****                     }
 336:../../tmk_core/protocol/lufa/lufa.c ****                     keyboard_led_stats = Endpoint_Read_8();
 337:../../tmk_core/protocol/lufa/lufa.c **** 
 338:../../tmk_core/protocol/lufa/lufa.c ****                     Endpoint_ClearOUT();
 339:../../tmk_core/protocol/lufa/lufa.c ****                     Endpoint_ClearStatusStage();
 340:../../tmk_core/protocol/lufa/lufa.c **** #ifdef LUFA_DEBUG
 341:../../tmk_core/protocol/lufa/lufa.c ****                     xprintf("[L%d]", USB_ControlRequest.wIndex);
 342:../../tmk_core/protocol/lufa/lufa.c **** #endif
 343:../../tmk_core/protocol/lufa/lufa.c ****                     break;
 344:../../tmk_core/protocol/lufa/lufa.c ****                 }
 345:../../tmk_core/protocol/lufa/lufa.c **** 
 346:../../tmk_core/protocol/lufa/lufa.c ****             }
 347:../../tmk_core/protocol/lufa/lufa.c **** 
 348:../../tmk_core/protocol/lufa/lufa.c ****             break;
 349:../../tmk_core/protocol/lufa/lufa.c **** 
 350:../../tmk_core/protocol/lufa/lufa.c ****         case HID_REQ_GetProtocol:
 351:../../tmk_core/protocol/lufa/lufa.c ****             if (USB_ControlRequest.bmRequestType == (REQDIR_DEVICETOHOST | REQTYPE_CLASS | REQREC_I
 352:../../tmk_core/protocol/lufa/lufa.c ****             {
 353:../../tmk_core/protocol/lufa/lufa.c ****                 if (USB_ControlRequest.wIndex == KEYBOARD_INTERFACE) {
 354:../../tmk_core/protocol/lufa/lufa.c ****                     Endpoint_ClearSETUP();
 355:../../tmk_core/protocol/lufa/lufa.c ****                     while (!(Endpoint_IsINReady()));
 356:../../tmk_core/protocol/lufa/lufa.c ****                     Endpoint_Write_8(keyboard_protocol);
 357:../../tmk_core/protocol/lufa/lufa.c ****                     Endpoint_ClearIN();
 358:../../tmk_core/protocol/lufa/lufa.c ****                     Endpoint_ClearStatusStage();
 359:../../tmk_core/protocol/lufa/lufa.c **** #ifdef LUFA_DEBUG
 360:../../tmk_core/protocol/lufa/lufa.c ****                     print("[p]");
 361:../../tmk_core/protocol/lufa/lufa.c **** #endif
 362:../../tmk_core/protocol/lufa/lufa.c ****                 }
 363:../../tmk_core/protocol/lufa/lufa.c ****             }
 364:../../tmk_core/protocol/lufa/lufa.c **** 
 365:../../tmk_core/protocol/lufa/lufa.c ****             break;
 366:../../tmk_core/protocol/lufa/lufa.c ****         case HID_REQ_SetProtocol:
 367:../../tmk_core/protocol/lufa/lufa.c ****             if (USB_ControlRequest.bmRequestType == (REQDIR_HOSTTODEVICE | REQTYPE_CLASS | REQREC_I
 368:../../tmk_core/protocol/lufa/lufa.c ****             {
 369:../../tmk_core/protocol/lufa/lufa.c ****                 if (USB_ControlRequest.wIndex == KEYBOARD_INTERFACE) {
 370:../../tmk_core/protocol/lufa/lufa.c ****                     Endpoint_ClearSETUP();
 371:../../tmk_core/protocol/lufa/lufa.c ****                     Endpoint_ClearStatusStage();
 372:../../tmk_core/protocol/lufa/lufa.c **** 
 373:../../tmk_core/protocol/lufa/lufa.c ****                     keyboard_protocol = (USB_ControlRequest.wValue & 0xFF);
 374:../../tmk_core/protocol/lufa/lufa.c ****                     clear_keyboard();
 375:../../tmk_core/protocol/lufa/lufa.c **** #ifdef LUFA_DEBUG
 376:../../tmk_core/protocol/lufa/lufa.c ****                     print("[P]");
 377:../../tmk_core/protocol/lufa/lufa.c **** #endif
 378:../../tmk_core/protocol/lufa/lufa.c ****                 }
 379:../../tmk_core/protocol/lufa/lufa.c ****             }
 380:../../tmk_core/protocol/lufa/lufa.c **** 
 381:../../tmk_core/protocol/lufa/lufa.c ****             break;
 382:../../tmk_core/protocol/lufa/lufa.c ****         case HID_REQ_SetIdle:
 383:../../tmk_core/protocol/lufa/lufa.c ****             if (USB_ControlRequest.bmRequestType == (REQDIR_HOSTTODEVICE | REQTYPE_CLASS | REQREC_I
 384:../../tmk_core/protocol/lufa/lufa.c ****             {
 385:../../tmk_core/protocol/lufa/lufa.c ****                 Endpoint_ClearSETUP();
 386:../../tmk_core/protocol/lufa/lufa.c ****                 Endpoint_ClearStatusStage();
 387:../../tmk_core/protocol/lufa/lufa.c **** 
 388:../../tmk_core/protocol/lufa/lufa.c ****                 keyboard_idle = ((USB_ControlRequest.wValue & 0xFF00) >> 8);
 389:../../tmk_core/protocol/lufa/lufa.c **** #ifdef LUFA_DEBUG
 390:../../tmk_core/protocol/lufa/lufa.c ****                 xprintf("[I%d]%d", USB_ControlRequest.wIndex, (USB_ControlRequest.wValue & 0xFF00) 
 391:../../tmk_core/protocol/lufa/lufa.c **** #endif
 392:../../tmk_core/protocol/lufa/lufa.c ****             }
 393:../../tmk_core/protocol/lufa/lufa.c **** 
 394:../../tmk_core/protocol/lufa/lufa.c ****             break;
 395:../../tmk_core/protocol/lufa/lufa.c ****         case HID_REQ_GetIdle:
 396:../../tmk_core/protocol/lufa/lufa.c ****             if (USB_ControlRequest.bmRequestType == (REQDIR_DEVICETOHOST | REQTYPE_CLASS | REQREC_I
 397:../../tmk_core/protocol/lufa/lufa.c ****             {
 398:../../tmk_core/protocol/lufa/lufa.c ****                 Endpoint_ClearSETUP();
 399:../../tmk_core/protocol/lufa/lufa.c ****                 while (!(Endpoint_IsINReady()));
 400:../../tmk_core/protocol/lufa/lufa.c ****                 Endpoint_Write_8(keyboard_idle);
 401:../../tmk_core/protocol/lufa/lufa.c ****                 Endpoint_ClearIN();
 402:../../tmk_core/protocol/lufa/lufa.c ****                 Endpoint_ClearStatusStage();
 403:../../tmk_core/protocol/lufa/lufa.c **** #ifdef LUFA_DEBUG
 404:../../tmk_core/protocol/lufa/lufa.c ****                 print("[i]");
 405:../../tmk_core/protocol/lufa/lufa.c **** #endif
 406:../../tmk_core/protocol/lufa/lufa.c ****             }
 407:../../tmk_core/protocol/lufa/lufa.c **** 
 408:../../tmk_core/protocol/lufa/lufa.c ****             break;
 409:../../tmk_core/protocol/lufa/lufa.c ****     }
 410:../../tmk_core/protocol/lufa/lufa.c **** }
 411:../../tmk_core/protocol/lufa/lufa.c **** 
 412:../../tmk_core/protocol/lufa/lufa.c **** /*******************************************************************************
 413:../../tmk_core/protocol/lufa/lufa.c ****  * Host driver
 414:../../tmk_core/protocol/lufa/lufa.c ****  ******************************************************************************/
 415:../../tmk_core/protocol/lufa/lufa.c **** static uint8_t keyboard_leds(void)
 416:../../tmk_core/protocol/lufa/lufa.c **** {
  15               		.loc 1 416 0
  16               		.cfi_startproc
  17               	/* prologue: function */
  18               	/* frame size = 0 */
  19               	/* stack size = 0 */
  20               	.L__stack_usage = 0
 417:../../tmk_core/protocol/lufa/lufa.c ****     return keyboard_led_stats;
 418:../../tmk_core/protocol/lufa/lufa.c **** }
  21               		.loc 1 418 0
  22 0000 8091 0000 		lds r24,keyboard_led_stats
  23               	/* epilogue start */
  24 0004 0895      		ret
  25               		.cfi_endproc
  26               	.LFE117:
  28               		.section	.text.sendchar,"ax",@progbits
  29               	.global	sendchar
  31               	sendchar:
  32               	.LFB122:
 419:../../tmk_core/protocol/lufa/lufa.c **** 
 420:../../tmk_core/protocol/lufa/lufa.c **** static void send_keyboard(report_keyboard_t *report)
 421:../../tmk_core/protocol/lufa/lufa.c **** {
 422:../../tmk_core/protocol/lufa/lufa.c ****     uint8_t timeout = 255;
 423:../../tmk_core/protocol/lufa/lufa.c **** 
 424:../../tmk_core/protocol/lufa/lufa.c ****     if (USB_DeviceState != DEVICE_STATE_Configured)
 425:../../tmk_core/protocol/lufa/lufa.c ****         return;
 426:../../tmk_core/protocol/lufa/lufa.c **** 
 427:../../tmk_core/protocol/lufa/lufa.c ****     /* Select the Keyboard Report Endpoint */
 428:../../tmk_core/protocol/lufa/lufa.c **** #ifdef NKRO_ENABLE
 429:../../tmk_core/protocol/lufa/lufa.c ****     if (keyboard_protocol && keyboard_nkro) {
 430:../../tmk_core/protocol/lufa/lufa.c ****         /* Report protocol - NKRO */
 431:../../tmk_core/protocol/lufa/lufa.c ****         Endpoint_SelectEndpoint(NKRO_IN_EPNUM);
 432:../../tmk_core/protocol/lufa/lufa.c **** 
 433:../../tmk_core/protocol/lufa/lufa.c ****         /* Check if write ready for a polling interval around 1ms */
 434:../../tmk_core/protocol/lufa/lufa.c ****         while (timeout-- && !Endpoint_IsReadWriteAllowed()) _delay_us(8);
 435:../../tmk_core/protocol/lufa/lufa.c ****         if (!Endpoint_IsReadWriteAllowed()) return;
 436:../../tmk_core/protocol/lufa/lufa.c **** 
 437:../../tmk_core/protocol/lufa/lufa.c ****         /* Write Keyboard Report Data */
 438:../../tmk_core/protocol/lufa/lufa.c ****         Endpoint_Write_Stream_LE(report, NKRO_EPSIZE, NULL);
 439:../../tmk_core/protocol/lufa/lufa.c ****     }
 440:../../tmk_core/protocol/lufa/lufa.c ****     else
 441:../../tmk_core/protocol/lufa/lufa.c **** #endif
 442:../../tmk_core/protocol/lufa/lufa.c ****     {
 443:../../tmk_core/protocol/lufa/lufa.c ****         /* Boot protocol */
 444:../../tmk_core/protocol/lufa/lufa.c ****         Endpoint_SelectEndpoint(KEYBOARD_IN_EPNUM);
 445:../../tmk_core/protocol/lufa/lufa.c **** 
 446:../../tmk_core/protocol/lufa/lufa.c ****         /* Check if write ready for a polling interval around 10ms */
 447:../../tmk_core/protocol/lufa/lufa.c ****         while (timeout-- && !Endpoint_IsReadWriteAllowed()) _delay_us(40);
 448:../../tmk_core/protocol/lufa/lufa.c ****         if (!Endpoint_IsReadWriteAllowed()) return;
 449:../../tmk_core/protocol/lufa/lufa.c **** 
 450:../../tmk_core/protocol/lufa/lufa.c ****         /* Write Keyboard Report Data */
 451:../../tmk_core/protocol/lufa/lufa.c ****         Endpoint_Write_Stream_LE(report, KEYBOARD_EPSIZE, NULL);
 452:../../tmk_core/protocol/lufa/lufa.c ****     }
 453:../../tmk_core/protocol/lufa/lufa.c **** 
 454:../../tmk_core/protocol/lufa/lufa.c ****     /* Finalize the stream transfer to send the last packet */
 455:../../tmk_core/protocol/lufa/lufa.c ****     Endpoint_ClearIN();
 456:../../tmk_core/protocol/lufa/lufa.c **** 
 457:../../tmk_core/protocol/lufa/lufa.c ****     keyboard_report_sent = *report;
 458:../../tmk_core/protocol/lufa/lufa.c **** }
 459:../../tmk_core/protocol/lufa/lufa.c **** 
 460:../../tmk_core/protocol/lufa/lufa.c **** static void send_mouse(report_mouse_t *report)
 461:../../tmk_core/protocol/lufa/lufa.c **** {
 462:../../tmk_core/protocol/lufa/lufa.c **** #ifdef MOUSE_ENABLE
 463:../../tmk_core/protocol/lufa/lufa.c ****     uint8_t timeout = 255;
 464:../../tmk_core/protocol/lufa/lufa.c **** 
 465:../../tmk_core/protocol/lufa/lufa.c ****     if (USB_DeviceState != DEVICE_STATE_Configured)
 466:../../tmk_core/protocol/lufa/lufa.c ****         return;
 467:../../tmk_core/protocol/lufa/lufa.c **** 
 468:../../tmk_core/protocol/lufa/lufa.c ****     /* Select the Mouse Report Endpoint */
 469:../../tmk_core/protocol/lufa/lufa.c ****     Endpoint_SelectEndpoint(MOUSE_IN_EPNUM);
 470:../../tmk_core/protocol/lufa/lufa.c **** 
 471:../../tmk_core/protocol/lufa/lufa.c ****     /* Check if write ready for a polling interval around 10ms */
 472:../../tmk_core/protocol/lufa/lufa.c ****     while (timeout-- && !Endpoint_IsReadWriteAllowed()) _delay_us(40);
 473:../../tmk_core/protocol/lufa/lufa.c ****     if (!Endpoint_IsReadWriteAllowed()) return;
 474:../../tmk_core/protocol/lufa/lufa.c **** 
 475:../../tmk_core/protocol/lufa/lufa.c ****     /* Write Mouse Report Data */
 476:../../tmk_core/protocol/lufa/lufa.c ****     Endpoint_Write_Stream_LE(report, sizeof(report_mouse_t), NULL);
 477:../../tmk_core/protocol/lufa/lufa.c **** 
 478:../../tmk_core/protocol/lufa/lufa.c ****     /* Finalize the stream transfer to send the last packet */
 479:../../tmk_core/protocol/lufa/lufa.c ****     Endpoint_ClearIN();
 480:../../tmk_core/protocol/lufa/lufa.c **** #endif
 481:../../tmk_core/protocol/lufa/lufa.c **** }
 482:../../tmk_core/protocol/lufa/lufa.c **** 
 483:../../tmk_core/protocol/lufa/lufa.c **** static void send_system(uint16_t data)
 484:../../tmk_core/protocol/lufa/lufa.c **** {
 485:../../tmk_core/protocol/lufa/lufa.c ****     uint8_t timeout = 255;
 486:../../tmk_core/protocol/lufa/lufa.c **** 
 487:../../tmk_core/protocol/lufa/lufa.c ****     if (USB_DeviceState != DEVICE_STATE_Configured)
 488:../../tmk_core/protocol/lufa/lufa.c ****         return;
 489:../../tmk_core/protocol/lufa/lufa.c **** 
 490:../../tmk_core/protocol/lufa/lufa.c ****     report_extra_t r = {
 491:../../tmk_core/protocol/lufa/lufa.c ****         .report_id = REPORT_ID_SYSTEM,
 492:../../tmk_core/protocol/lufa/lufa.c ****         .usage = data
 493:../../tmk_core/protocol/lufa/lufa.c ****     };
 494:../../tmk_core/protocol/lufa/lufa.c ****     Endpoint_SelectEndpoint(EXTRAKEY_IN_EPNUM);
 495:../../tmk_core/protocol/lufa/lufa.c **** 
 496:../../tmk_core/protocol/lufa/lufa.c ****     /* Check if write ready for a polling interval around 10ms */
 497:../../tmk_core/protocol/lufa/lufa.c ****     while (timeout-- && !Endpoint_IsReadWriteAllowed()) _delay_us(40);
 498:../../tmk_core/protocol/lufa/lufa.c ****     if (!Endpoint_IsReadWriteAllowed()) return;
 499:../../tmk_core/protocol/lufa/lufa.c **** 
 500:../../tmk_core/protocol/lufa/lufa.c ****     Endpoint_Write_Stream_LE(&r, sizeof(report_extra_t), NULL);
 501:../../tmk_core/protocol/lufa/lufa.c ****     Endpoint_ClearIN();
 502:../../tmk_core/protocol/lufa/lufa.c **** }
 503:../../tmk_core/protocol/lufa/lufa.c **** 
 504:../../tmk_core/protocol/lufa/lufa.c **** static void send_consumer(uint16_t data)
 505:../../tmk_core/protocol/lufa/lufa.c **** {
 506:../../tmk_core/protocol/lufa/lufa.c ****     uint8_t timeout = 255;
 507:../../tmk_core/protocol/lufa/lufa.c **** 
 508:../../tmk_core/protocol/lufa/lufa.c ****     if (USB_DeviceState != DEVICE_STATE_Configured)
 509:../../tmk_core/protocol/lufa/lufa.c ****         return;
 510:../../tmk_core/protocol/lufa/lufa.c **** 
 511:../../tmk_core/protocol/lufa/lufa.c ****     report_extra_t r = {
 512:../../tmk_core/protocol/lufa/lufa.c ****         .report_id = REPORT_ID_CONSUMER,
 513:../../tmk_core/protocol/lufa/lufa.c ****         .usage = data
 514:../../tmk_core/protocol/lufa/lufa.c ****     };
 515:../../tmk_core/protocol/lufa/lufa.c ****     Endpoint_SelectEndpoint(EXTRAKEY_IN_EPNUM);
 516:../../tmk_core/protocol/lufa/lufa.c **** 
 517:../../tmk_core/protocol/lufa/lufa.c ****     /* Check if write ready for a polling interval around 10ms */
 518:../../tmk_core/protocol/lufa/lufa.c ****     while (timeout-- && !Endpoint_IsReadWriteAllowed()) _delay_us(40);
 519:../../tmk_core/protocol/lufa/lufa.c ****     if (!Endpoint_IsReadWriteAllowed()) return;
 520:../../tmk_core/protocol/lufa/lufa.c **** 
 521:../../tmk_core/protocol/lufa/lufa.c ****     Endpoint_Write_Stream_LE(&r, sizeof(report_extra_t), NULL);
 522:../../tmk_core/protocol/lufa/lufa.c ****     Endpoint_ClearIN();
 523:../../tmk_core/protocol/lufa/lufa.c **** }
 524:../../tmk_core/protocol/lufa/lufa.c **** 
 525:../../tmk_core/protocol/lufa/lufa.c **** 
 526:../../tmk_core/protocol/lufa/lufa.c **** /*******************************************************************************
 527:../../tmk_core/protocol/lufa/lufa.c ****  * sendchar
 528:../../tmk_core/protocol/lufa/lufa.c ****  ******************************************************************************/
 529:../../tmk_core/protocol/lufa/lufa.c **** #ifdef CONSOLE_ENABLE
 530:../../tmk_core/protocol/lufa/lufa.c **** #define SEND_TIMEOUT 5
 531:../../tmk_core/protocol/lufa/lufa.c **** int8_t sendchar(uint8_t c)
 532:../../tmk_core/protocol/lufa/lufa.c **** {
  33               		.loc 1 532 0
  34               		.cfi_startproc
  35               	.LVL0:
  36               	/* prologue: function */
  37               	/* frame size = 0 */
  38               	/* stack size = 0 */
  39               	.L__stack_usage = 0
  40               	.LBB164:
 533:../../tmk_core/protocol/lufa/lufa.c **** #ifdef LUFA_DEBUG_SUART
 534:../../tmk_core/protocol/lufa/lufa.c ****     xmit(c);
 535:../../tmk_core/protocol/lufa/lufa.c **** #endif
 536:../../tmk_core/protocol/lufa/lufa.c ****     // Not wait once timeouted.
 537:../../tmk_core/protocol/lufa/lufa.c ****     // Because sendchar() is called so many times, waiting each call causes big lag.
 538:../../tmk_core/protocol/lufa/lufa.c ****     static bool timeouted = false;
 539:../../tmk_core/protocol/lufa/lufa.c **** 
 540:../../tmk_core/protocol/lufa/lufa.c ****     // prevents Console_Task() from running during sendchar() runs.
 541:../../tmk_core/protocol/lufa/lufa.c ****     // or char will be lost. These two function is mutually exclusive.
 542:../../tmk_core/protocol/lufa/lufa.c ****     CONSOLE_FLUSH_SET(false);
  41               		.loc 1 542 0
  42 0000 9FB7      		in r25,__SREG__
  43               	.LVL1:
  44               	/* #APP */
  45               	 ;  542 "../../tmk_core/protocol/lufa/lufa.c" 1
  46 0002 F894      		cli
  47               	 ;  0 "" 2
  48               	/* #NOAPP */
  49 0004 1092 0000 		sts console_flush,__zero_reg__
  50 0008 9FBF      		out __SREG__,r25
  51               	.LBE164:
 543:../../tmk_core/protocol/lufa/lufa.c **** 
 544:../../tmk_core/protocol/lufa/lufa.c ****     if (USB_DeviceState != DEVICE_STATE_Configured)
  52               		.loc 1 544 0
  53 000a 9091 0000 		lds r25,USB_DeviceState
  54               	.LVL2:
  55 000e 9430      		cpi r25,lo8(4)
  56 0010 01F0      		breq .+2
  57 0012 00C0      		rjmp .L14
  58               	.LBB165:
  59               	.LBB166:
  60               		.file 2 "../../tmk_core/protocol/lufa/LUFA-git/LUFA/Drivers/USB/Core/AVR8/../AVR8/Endpoint_AVR8.h"
   1:../../tmk_core/protocol/lufa/LUFA-git/LUFA/Drivers/USB/Core/AVR8/../AVR8/Endpoint_AVR8.h **** /*
   2:../../tmk_core/protocol/lufa/LUFA-git/LUFA/Drivers/USB/Core/AVR8/../AVR8/Endpoint_AVR8.h ****              LUFA Library
   3:../../tmk_core/protocol/lufa/LUFA-git/LUFA/Drivers/USB/Core/AVR8/../AVR8/Endpoint_AVR8.h ****      Copyright (C) Dean Camera, 2014.
   4:../../tmk_core/protocol/lufa/LUFA-git/LUFA/Drivers/USB/Core/AVR8/../AVR8/Endpoint_AVR8.h **** 
   5:../../tmk_core/protocol/lufa/LUFA-git/LUFA/Drivers/USB/Core/AVR8/../AVR8/Endpoint_AVR8.h ****   dean [at] fourwalledcubicle [dot] com
   6:../../tmk_core/protocol/lufa/LUFA-git/LUFA/Drivers/USB/Core/AVR8/../AVR8/Endpoint_AVR8.h ****            www.lufa-lib.org
   7:../../tmk_core/protocol/lufa/LUFA-git/LUFA/Drivers/USB/Core/AVR8/../AVR8/Endpoint_AVR8.h **** */
   8:../../tmk_core/protocol/lufa/LUFA-git/LUFA/Drivers/USB/Core/AVR8/../AVR8/Endpoint_AVR8.h **** 
   9:../../tmk_core/protocol/lufa/LUFA-git/LUFA/Drivers/USB/Core/AVR8/../AVR8/Endpoint_AVR8.h **** /*
  10:../../tmk_core/protocol/lufa/LUFA-git/LUFA/Drivers/USB/Core/AVR8/../AVR8/Endpoint_AVR8.h ****   Copyright 2014  Dean Camera (dean [at] fourwalledcubicle [dot] com)
  11:../../tmk_core/protocol/lufa/LUFA-git/LUFA/Drivers/USB/Core/AVR8/../AVR8/Endpoint_AVR8.h **** 
  12:../../tmk_core/protocol/lufa/LUFA-git/LUFA/Drivers/USB/Core/AVR8/../AVR8/Endpoint_AVR8.h ****   Permission to use, copy, modify, distribute, and sell this
  13:../../tmk_core/protocol/lufa/LUFA-git/LUFA/Drivers/USB/Core/AVR8/../AVR8/Endpoint_AVR8.h ****   software and its documentation for any purpose is hereby granted
  14:../../tmk_core/protocol/lufa/LUFA-git/LUFA/Drivers/USB/Core/AVR8/../AVR8/Endpoint_AVR8.h ****   without fee, provided that the above copyright notice appear in
  15:../../tmk_core/protocol/lufa/LUFA-git/LUFA/Drivers/USB/Core/AVR8/../AVR8/Endpoint_AVR8.h ****   all copies and that both that the copyright notice and this
  16:../../tmk_core/protocol/lufa/LUFA-git/LUFA/Drivers/USB/Core/AVR8/../AVR8/Endpoint_AVR8.h ****   permission notice and warranty disclaimer appear in supporting
  17:../../tmk_core/protocol/lufa/LUFA-git/LUFA/Drivers/USB/Core/AVR8/../AVR8/Endpoint_AVR8.h ****   documentation, and that the name of the author not be used in
  18:../../tmk_core/protocol/lufa/LUFA-git/LUFA/Drivers/USB/Core/AVR8/../AVR8/Endpoint_AVR8.h ****   advertising or publicity pertaining to distribution of the
  19:../../tmk_core/protocol/lufa/LUFA-git/LUFA/Drivers/USB/Core/AVR8/../AVR8/Endpoint_AVR8.h ****   software without specific, written prior permission.
  20:../../tmk_core/protocol/lufa/LUFA-git/LUFA/Drivers/USB/Core/AVR8/../AVR8/Endpoint_AVR8.h **** 
  21:../../tmk_core/protocol/lufa/LUFA-git/LUFA/Drivers/USB/Core/AVR8/../AVR8/Endpoint_AVR8.h ****   The author disclaims all warranties with regard to this
  22:../../tmk_core/protocol/lufa/LUFA-git/LUFA/Drivers/USB/Core/AVR8/../AVR8/Endpoint_AVR8.h ****   software, including all implied warranties of merchantability
  23:../../tmk_core/protocol/lufa/LUFA-git/LUFA/Drivers/USB/Core/AVR8/../AVR8/Endpoint_AVR8.h ****   and fitness.  In no event shall the author be liable for any
  24:../../tmk_core/protocol/lufa/LUFA-git/LUFA/Drivers/USB/Core/AVR8/../AVR8/Endpoint_AVR8.h ****   special, indirect or consequential damages or any damages
  25:../../tmk_core/protocol/lufa/LUFA-git/LUFA/Drivers/USB/Core/AVR8/../AVR8/Endpoint_AVR8.h ****   whatsoever resulting from loss of use, data or profits, whether
  26:../../tmk_core/protocol/lufa/LUFA-git/LUFA/Drivers/USB/Core/AVR8/../AVR8/Endpoint_AVR8.h ****   in an action of contract, negligence or other tortious action,
  27:../../tmk_core/protocol/lufa/LUFA-git/LUFA/Drivers/USB/Core/AVR8/../AVR8/Endpoint_AVR8.h ****   arising out of or in connection with the use or performance of
  28:../../tmk_core/protocol/lufa/LUFA-git/LUFA/Drivers/USB/Core/AVR8/../AVR8/Endpoint_AVR8.h ****   this software.
  29:../../tmk_core/protocol/lufa/LUFA-git/LUFA/Drivers/USB/Core/AVR8/../AVR8/Endpoint_AVR8.h **** */
  30:../../tmk_core/protocol/lufa/LUFA-git/LUFA/Drivers/USB/Core/AVR8/../AVR8/Endpoint_AVR8.h **** 
  31:../../tmk_core/protocol/lufa/LUFA-git/LUFA/Drivers/USB/Core/AVR8/../AVR8/Endpoint_AVR8.h **** /** \file
  32:../../tmk_core/protocol/lufa/LUFA-git/LUFA/Drivers/USB/Core/AVR8/../AVR8/Endpoint_AVR8.h ****  *  \brief USB Endpoint definitions for the AVR8 microcontrollers.
  33:../../tmk_core/protocol/lufa/LUFA-git/LUFA/Drivers/USB/Core/AVR8/../AVR8/Endpoint_AVR8.h ****  *  \copydetails Group_EndpointManagement_AVR8
  34:../../tmk_core/protocol/lufa/LUFA-git/LUFA/Drivers/USB/Core/AVR8/../AVR8/Endpoint_AVR8.h ****  *
  35:../../tmk_core/protocol/lufa/LUFA-git/LUFA/Drivers/USB/Core/AVR8/../AVR8/Endpoint_AVR8.h ****  *  \note This file should not be included directly. It is automatically included as needed by the 
  36:../../tmk_core/protocol/lufa/LUFA-git/LUFA/Drivers/USB/Core/AVR8/../AVR8/Endpoint_AVR8.h ****  *        dispatch header located in LUFA/Drivers/USB/USB.h.
  37:../../tmk_core/protocol/lufa/LUFA-git/LUFA/Drivers/USB/Core/AVR8/../AVR8/Endpoint_AVR8.h ****  */
  38:../../tmk_core/protocol/lufa/LUFA-git/LUFA/Drivers/USB/Core/AVR8/../AVR8/Endpoint_AVR8.h **** 
  39:../../tmk_core/protocol/lufa/LUFA-git/LUFA/Drivers/USB/Core/AVR8/../AVR8/Endpoint_AVR8.h **** /** \ingroup Group_EndpointRW
  40:../../tmk_core/protocol/lufa/LUFA-git/LUFA/Drivers/USB/Core/AVR8/../AVR8/Endpoint_AVR8.h ****  *  \defgroup Group_EndpointRW_AVR8 Endpoint Data Reading and Writing (AVR8)
  41:../../tmk_core/protocol/lufa/LUFA-git/LUFA/Drivers/USB/Core/AVR8/../AVR8/Endpoint_AVR8.h ****  *  \brief Endpoint data read/write definitions for the Atmel AVR8 architecture.
  42:../../tmk_core/protocol/lufa/LUFA-git/LUFA/Drivers/USB/Core/AVR8/../AVR8/Endpoint_AVR8.h ****  *
  43:../../tmk_core/protocol/lufa/LUFA-git/LUFA/Drivers/USB/Core/AVR8/../AVR8/Endpoint_AVR8.h ****  *  Functions, macros, variables, enums and types related to data reading and writing from and to e
  44:../../tmk_core/protocol/lufa/LUFA-git/LUFA/Drivers/USB/Core/AVR8/../AVR8/Endpoint_AVR8.h ****  */
  45:../../tmk_core/protocol/lufa/LUFA-git/LUFA/Drivers/USB/Core/AVR8/../AVR8/Endpoint_AVR8.h **** 
  46:../../tmk_core/protocol/lufa/LUFA-git/LUFA/Drivers/USB/Core/AVR8/../AVR8/Endpoint_AVR8.h **** /** \ingroup Group_EndpointPrimitiveRW
  47:../../tmk_core/protocol/lufa/LUFA-git/LUFA/Drivers/USB/Core/AVR8/../AVR8/Endpoint_AVR8.h ****  *  \defgroup Group_EndpointPrimitiveRW_AVR8 Read/Write of Primitive Data Types (AVR8)
  48:../../tmk_core/protocol/lufa/LUFA-git/LUFA/Drivers/USB/Core/AVR8/../AVR8/Endpoint_AVR8.h ****  *  \brief Endpoint primitive read/write definitions for the Atmel AVR8 architecture.
  49:../../tmk_core/protocol/lufa/LUFA-git/LUFA/Drivers/USB/Core/AVR8/../AVR8/Endpoint_AVR8.h ****  *
  50:../../tmk_core/protocol/lufa/LUFA-git/LUFA/Drivers/USB/Core/AVR8/../AVR8/Endpoint_AVR8.h ****  *  Functions, macros, variables, enums and types related to data reading and writing of primitive 
  51:../../tmk_core/protocol/lufa/LUFA-git/LUFA/Drivers/USB/Core/AVR8/../AVR8/Endpoint_AVR8.h ****  *  from and to endpoints.
  52:../../tmk_core/protocol/lufa/LUFA-git/LUFA/Drivers/USB/Core/AVR8/../AVR8/Endpoint_AVR8.h ****  */
  53:../../tmk_core/protocol/lufa/LUFA-git/LUFA/Drivers/USB/Core/AVR8/../AVR8/Endpoint_AVR8.h **** 
  54:../../tmk_core/protocol/lufa/LUFA-git/LUFA/Drivers/USB/Core/AVR8/../AVR8/Endpoint_AVR8.h **** /** \ingroup Group_EndpointPacketManagement
  55:../../tmk_core/protocol/lufa/LUFA-git/LUFA/Drivers/USB/Core/AVR8/../AVR8/Endpoint_AVR8.h ****  *  \defgroup Group_EndpointPacketManagement_AVR8 Endpoint Packet Management (AVR8)
  56:../../tmk_core/protocol/lufa/LUFA-git/LUFA/Drivers/USB/Core/AVR8/../AVR8/Endpoint_AVR8.h ****  *  \brief Endpoint packet management definitions for the Atmel AVR8 architecture.
  57:../../tmk_core/protocol/lufa/LUFA-git/LUFA/Drivers/USB/Core/AVR8/../AVR8/Endpoint_AVR8.h ****  *
  58:../../tmk_core/protocol/lufa/LUFA-git/LUFA/Drivers/USB/Core/AVR8/../AVR8/Endpoint_AVR8.h ****  *  Functions, macros, variables, enums and types related to packet management of endpoints.
  59:../../tmk_core/protocol/lufa/LUFA-git/LUFA/Drivers/USB/Core/AVR8/../AVR8/Endpoint_AVR8.h ****  */
  60:../../tmk_core/protocol/lufa/LUFA-git/LUFA/Drivers/USB/Core/AVR8/../AVR8/Endpoint_AVR8.h **** 
  61:../../tmk_core/protocol/lufa/LUFA-git/LUFA/Drivers/USB/Core/AVR8/../AVR8/Endpoint_AVR8.h **** /** \ingroup Group_EndpointManagement
  62:../../tmk_core/protocol/lufa/LUFA-git/LUFA/Drivers/USB/Core/AVR8/../AVR8/Endpoint_AVR8.h ****  *  \defgroup Group_EndpointManagement_AVR8 Endpoint Management (AVR8)
  63:../../tmk_core/protocol/lufa/LUFA-git/LUFA/Drivers/USB/Core/AVR8/../AVR8/Endpoint_AVR8.h ****  *  \brief Endpoint management definitions for the Atmel AVR8 architecture.
  64:../../tmk_core/protocol/lufa/LUFA-git/LUFA/Drivers/USB/Core/AVR8/../AVR8/Endpoint_AVR8.h ****  *
  65:../../tmk_core/protocol/lufa/LUFA-git/LUFA/Drivers/USB/Core/AVR8/../AVR8/Endpoint_AVR8.h ****  *  Functions, macros and enums related to endpoint management when in USB Device mode. This
  66:../../tmk_core/protocol/lufa/LUFA-git/LUFA/Drivers/USB/Core/AVR8/../AVR8/Endpoint_AVR8.h ****  *  module contains the endpoint management macros, as well as endpoint interrupt and data
  67:../../tmk_core/protocol/lufa/LUFA-git/LUFA/Drivers/USB/Core/AVR8/../AVR8/Endpoint_AVR8.h ****  *  send/receive functions for various data types.
  68:../../tmk_core/protocol/lufa/LUFA-git/LUFA/Drivers/USB/Core/AVR8/../AVR8/Endpoint_AVR8.h ****  *
  69:../../tmk_core/protocol/lufa/LUFA-git/LUFA/Drivers/USB/Core/AVR8/../AVR8/Endpoint_AVR8.h ****  *  @{
  70:../../tmk_core/protocol/lufa/LUFA-git/LUFA/Drivers/USB/Core/AVR8/../AVR8/Endpoint_AVR8.h ****  */
  71:../../tmk_core/protocol/lufa/LUFA-git/LUFA/Drivers/USB/Core/AVR8/../AVR8/Endpoint_AVR8.h **** 
  72:../../tmk_core/protocol/lufa/LUFA-git/LUFA/Drivers/USB/Core/AVR8/../AVR8/Endpoint_AVR8.h **** #ifndef __ENDPOINT_AVR8_H__
  73:../../tmk_core/protocol/lufa/LUFA-git/LUFA/Drivers/USB/Core/AVR8/../AVR8/Endpoint_AVR8.h **** #define __ENDPOINT_AVR8_H__
  74:../../tmk_core/protocol/lufa/LUFA-git/LUFA/Drivers/USB/Core/AVR8/../AVR8/Endpoint_AVR8.h **** 
  75:../../tmk_core/protocol/lufa/LUFA-git/LUFA/Drivers/USB/Core/AVR8/../AVR8/Endpoint_AVR8.h **** 	/* Includes: */
  76:../../tmk_core/protocol/lufa/LUFA-git/LUFA/Drivers/USB/Core/AVR8/../AVR8/Endpoint_AVR8.h **** 		#include "../../../../Common/Common.h"
  77:../../tmk_core/protocol/lufa/LUFA-git/LUFA/Drivers/USB/Core/AVR8/../AVR8/Endpoint_AVR8.h **** 		#include "../USBTask.h"
  78:../../tmk_core/protocol/lufa/LUFA-git/LUFA/Drivers/USB/Core/AVR8/../AVR8/Endpoint_AVR8.h **** 		#include "../USBInterrupt.h"
  79:../../tmk_core/protocol/lufa/LUFA-git/LUFA/Drivers/USB/Core/AVR8/../AVR8/Endpoint_AVR8.h **** 
  80:../../tmk_core/protocol/lufa/LUFA-git/LUFA/Drivers/USB/Core/AVR8/../AVR8/Endpoint_AVR8.h **** 	/* Enable C linkage for C++ Compilers: */
  81:../../tmk_core/protocol/lufa/LUFA-git/LUFA/Drivers/USB/Core/AVR8/../AVR8/Endpoint_AVR8.h **** 		#if defined(__cplusplus)
  82:../../tmk_core/protocol/lufa/LUFA-git/LUFA/Drivers/USB/Core/AVR8/../AVR8/Endpoint_AVR8.h **** 			extern "C" {
  83:../../tmk_core/protocol/lufa/LUFA-git/LUFA/Drivers/USB/Core/AVR8/../AVR8/Endpoint_AVR8.h **** 		#endif
  84:../../tmk_core/protocol/lufa/LUFA-git/LUFA/Drivers/USB/Core/AVR8/../AVR8/Endpoint_AVR8.h **** 
  85:../../tmk_core/protocol/lufa/LUFA-git/LUFA/Drivers/USB/Core/AVR8/../AVR8/Endpoint_AVR8.h **** 	/* Preprocessor Checks: */
  86:../../tmk_core/protocol/lufa/LUFA-git/LUFA/Drivers/USB/Core/AVR8/../AVR8/Endpoint_AVR8.h **** 		#if !defined(__INCLUDE_FROM_USB_DRIVER)
  87:../../tmk_core/protocol/lufa/LUFA-git/LUFA/Drivers/USB/Core/AVR8/../AVR8/Endpoint_AVR8.h **** 			#error Do not include this file directly. Include LUFA/Drivers/USB/USB.h instead.
  88:../../tmk_core/protocol/lufa/LUFA-git/LUFA/Drivers/USB/Core/AVR8/../AVR8/Endpoint_AVR8.h **** 		#endif
  89:../../tmk_core/protocol/lufa/LUFA-git/LUFA/Drivers/USB/Core/AVR8/../AVR8/Endpoint_AVR8.h **** 
  90:../../tmk_core/protocol/lufa/LUFA-git/LUFA/Drivers/USB/Core/AVR8/../AVR8/Endpoint_AVR8.h **** 	/* Private Interface - For use in library only: */
  91:../../tmk_core/protocol/lufa/LUFA-git/LUFA/Drivers/USB/Core/AVR8/../AVR8/Endpoint_AVR8.h **** 	#if !defined(__DOXYGEN__)
  92:../../tmk_core/protocol/lufa/LUFA-git/LUFA/Drivers/USB/Core/AVR8/../AVR8/Endpoint_AVR8.h **** 		/* Inline Functions: */
  93:../../tmk_core/protocol/lufa/LUFA-git/LUFA/Drivers/USB/Core/AVR8/../AVR8/Endpoint_AVR8.h **** 			static inline uint8_t Endpoint_BytesToEPSizeMask(const uint16_t Bytes) ATTR_WARN_UNUSED_RESULT A
  94:../../tmk_core/protocol/lufa/LUFA-git/LUFA/Drivers/USB/Core/AVR8/../AVR8/Endpoint_AVR8.h **** 			                                                                       ATTR_ALWAYS_INLINE;
  95:../../tmk_core/protocol/lufa/LUFA-git/LUFA/Drivers/USB/Core/AVR8/../AVR8/Endpoint_AVR8.h **** 			static inline uint8_t Endpoint_BytesToEPSizeMask(const uint16_t Bytes)
  96:../../tmk_core/protocol/lufa/LUFA-git/LUFA/Drivers/USB/Core/AVR8/../AVR8/Endpoint_AVR8.h **** 			{
  97:../../tmk_core/protocol/lufa/LUFA-git/LUFA/Drivers/USB/Core/AVR8/../AVR8/Endpoint_AVR8.h **** 				uint8_t  MaskVal    = 0;
  98:../../tmk_core/protocol/lufa/LUFA-git/LUFA/Drivers/USB/Core/AVR8/../AVR8/Endpoint_AVR8.h **** 				uint16_t CheckBytes = 8;
  99:../../tmk_core/protocol/lufa/LUFA-git/LUFA/Drivers/USB/Core/AVR8/../AVR8/Endpoint_AVR8.h **** 
 100:../../tmk_core/protocol/lufa/LUFA-git/LUFA/Drivers/USB/Core/AVR8/../AVR8/Endpoint_AVR8.h **** 				while (CheckBytes < Bytes)
 101:../../tmk_core/protocol/lufa/LUFA-git/LUFA/Drivers/USB/Core/AVR8/../AVR8/Endpoint_AVR8.h **** 				{
 102:../../tmk_core/protocol/lufa/LUFA-git/LUFA/Drivers/USB/Core/AVR8/../AVR8/Endpoint_AVR8.h **** 					MaskVal++;
 103:../../tmk_core/protocol/lufa/LUFA-git/LUFA/Drivers/USB/Core/AVR8/../AVR8/Endpoint_AVR8.h **** 					CheckBytes <<= 1;
 104:../../tmk_core/protocol/lufa/LUFA-git/LUFA/Drivers/USB/Core/AVR8/../AVR8/Endpoint_AVR8.h **** 				}
 105:../../tmk_core/protocol/lufa/LUFA-git/LUFA/Drivers/USB/Core/AVR8/../AVR8/Endpoint_AVR8.h **** 
 106:../../tmk_core/protocol/lufa/LUFA-git/LUFA/Drivers/USB/Core/AVR8/../AVR8/Endpoint_AVR8.h **** 				return (MaskVal << EPSIZE0);
 107:../../tmk_core/protocol/lufa/LUFA-git/LUFA/Drivers/USB/Core/AVR8/../AVR8/Endpoint_AVR8.h **** 			}
 108:../../tmk_core/protocol/lufa/LUFA-git/LUFA/Drivers/USB/Core/AVR8/../AVR8/Endpoint_AVR8.h **** 
 109:../../tmk_core/protocol/lufa/LUFA-git/LUFA/Drivers/USB/Core/AVR8/../AVR8/Endpoint_AVR8.h **** 		/* Function Prototypes: */
 110:../../tmk_core/protocol/lufa/LUFA-git/LUFA/Drivers/USB/Core/AVR8/../AVR8/Endpoint_AVR8.h **** 			void Endpoint_ClearEndpoints(void);
 111:../../tmk_core/protocol/lufa/LUFA-git/LUFA/Drivers/USB/Core/AVR8/../AVR8/Endpoint_AVR8.h **** 			bool Endpoint_ConfigureEndpoint_Prv(const uint8_t Number,
 112:../../tmk_core/protocol/lufa/LUFA-git/LUFA/Drivers/USB/Core/AVR8/../AVR8/Endpoint_AVR8.h **** 			                                    const uint8_t UECFG0XData,
 113:../../tmk_core/protocol/lufa/LUFA-git/LUFA/Drivers/USB/Core/AVR8/../AVR8/Endpoint_AVR8.h **** 			                                    const uint8_t UECFG1XData);
 114:../../tmk_core/protocol/lufa/LUFA-git/LUFA/Drivers/USB/Core/AVR8/../AVR8/Endpoint_AVR8.h **** 
 115:../../tmk_core/protocol/lufa/LUFA-git/LUFA/Drivers/USB/Core/AVR8/../AVR8/Endpoint_AVR8.h **** 	#endif
 116:../../tmk_core/protocol/lufa/LUFA-git/LUFA/Drivers/USB/Core/AVR8/../AVR8/Endpoint_AVR8.h **** 
 117:../../tmk_core/protocol/lufa/LUFA-git/LUFA/Drivers/USB/Core/AVR8/../AVR8/Endpoint_AVR8.h **** 	/* Public Interface - May be used in end-application: */
 118:../../tmk_core/protocol/lufa/LUFA-git/LUFA/Drivers/USB/Core/AVR8/../AVR8/Endpoint_AVR8.h **** 		/* Macros: */
 119:../../tmk_core/protocol/lufa/LUFA-git/LUFA/Drivers/USB/Core/AVR8/../AVR8/Endpoint_AVR8.h **** 			#if (!defined(FIXED_CONTROL_ENDPOINT_SIZE) || defined(__DOXYGEN__))
 120:../../tmk_core/protocol/lufa/LUFA-git/LUFA/Drivers/USB/Core/AVR8/../AVR8/Endpoint_AVR8.h **** 				/** Default size of the default control endpoint's bank, until altered by the control endpoint 
 121:../../tmk_core/protocol/lufa/LUFA-git/LUFA/Drivers/USB/Core/AVR8/../AVR8/Endpoint_AVR8.h **** 				 *  value in the device descriptor. Not available if the \c FIXED_CONTROL_ENDPOINT_SIZE token i
 122:../../tmk_core/protocol/lufa/LUFA-git/LUFA/Drivers/USB/Core/AVR8/../AVR8/Endpoint_AVR8.h **** 				 */
 123:../../tmk_core/protocol/lufa/LUFA-git/LUFA/Drivers/USB/Core/AVR8/../AVR8/Endpoint_AVR8.h **** 				#define ENDPOINT_CONTROLEP_DEFAULT_SIZE     8
 124:../../tmk_core/protocol/lufa/LUFA-git/LUFA/Drivers/USB/Core/AVR8/../AVR8/Endpoint_AVR8.h **** 			#endif
 125:../../tmk_core/protocol/lufa/LUFA-git/LUFA/Drivers/USB/Core/AVR8/../AVR8/Endpoint_AVR8.h **** 
 126:../../tmk_core/protocol/lufa/LUFA-git/LUFA/Drivers/USB/Core/AVR8/../AVR8/Endpoint_AVR8.h **** 			#if !defined(CONTROL_ONLY_DEVICE) || defined(__DOXYGEN__)
 127:../../tmk_core/protocol/lufa/LUFA-git/LUFA/Drivers/USB/Core/AVR8/../AVR8/Endpoint_AVR8.h **** 				#if defined(USB_SERIES_4_AVR) || defined(USB_SERIES_6_AVR) || defined(USB_SERIES_7_AVR) || defi
 128:../../tmk_core/protocol/lufa/LUFA-git/LUFA/Drivers/USB/Core/AVR8/../AVR8/Endpoint_AVR8.h **** 					/** Total number of endpoints (including the default control endpoint at address 0) which may
 129:../../tmk_core/protocol/lufa/LUFA-git/LUFA/Drivers/USB/Core/AVR8/../AVR8/Endpoint_AVR8.h **** 					 *  be used in the device. Different USB AVR models support different amounts of endpoints,
 130:../../tmk_core/protocol/lufa/LUFA-git/LUFA/Drivers/USB/Core/AVR8/../AVR8/Endpoint_AVR8.h **** 					 *  this value reflects the maximum number of endpoints for the currently selected AVR model.
 131:../../tmk_core/protocol/lufa/LUFA-git/LUFA/Drivers/USB/Core/AVR8/../AVR8/Endpoint_AVR8.h **** 					 */
 132:../../tmk_core/protocol/lufa/LUFA-git/LUFA/Drivers/USB/Core/AVR8/../AVR8/Endpoint_AVR8.h **** 					#define ENDPOINT_TOTAL_ENDPOINTS        7
 133:../../tmk_core/protocol/lufa/LUFA-git/LUFA/Drivers/USB/Core/AVR8/../AVR8/Endpoint_AVR8.h **** 				#else
 134:../../tmk_core/protocol/lufa/LUFA-git/LUFA/Drivers/USB/Core/AVR8/../AVR8/Endpoint_AVR8.h **** 					#define ENDPOINT_TOTAL_ENDPOINTS        5
 135:../../tmk_core/protocol/lufa/LUFA-git/LUFA/Drivers/USB/Core/AVR8/../AVR8/Endpoint_AVR8.h **** 				#endif
 136:../../tmk_core/protocol/lufa/LUFA-git/LUFA/Drivers/USB/Core/AVR8/../AVR8/Endpoint_AVR8.h **** 			#else
 137:../../tmk_core/protocol/lufa/LUFA-git/LUFA/Drivers/USB/Core/AVR8/../AVR8/Endpoint_AVR8.h **** 				#define ENDPOINT_TOTAL_ENDPOINTS            1
 138:../../tmk_core/protocol/lufa/LUFA-git/LUFA/Drivers/USB/Core/AVR8/../AVR8/Endpoint_AVR8.h **** 			#endif
 139:../../tmk_core/protocol/lufa/LUFA-git/LUFA/Drivers/USB/Core/AVR8/../AVR8/Endpoint_AVR8.h **** 
 140:../../tmk_core/protocol/lufa/LUFA-git/LUFA/Drivers/USB/Core/AVR8/../AVR8/Endpoint_AVR8.h **** 		/* Enums: */
 141:../../tmk_core/protocol/lufa/LUFA-git/LUFA/Drivers/USB/Core/AVR8/../AVR8/Endpoint_AVR8.h **** 			/** Enum for the possible error return codes of the \ref Endpoint_WaitUntilReady() function.
 142:../../tmk_core/protocol/lufa/LUFA-git/LUFA/Drivers/USB/Core/AVR8/../AVR8/Endpoint_AVR8.h **** 			 *
 143:../../tmk_core/protocol/lufa/LUFA-git/LUFA/Drivers/USB/Core/AVR8/../AVR8/Endpoint_AVR8.h **** 			 *  \ingroup Group_EndpointRW_AVR8
 144:../../tmk_core/protocol/lufa/LUFA-git/LUFA/Drivers/USB/Core/AVR8/../AVR8/Endpoint_AVR8.h **** 			 */
 145:../../tmk_core/protocol/lufa/LUFA-git/LUFA/Drivers/USB/Core/AVR8/../AVR8/Endpoint_AVR8.h **** 			enum Endpoint_WaitUntilReady_ErrorCodes_t
 146:../../tmk_core/protocol/lufa/LUFA-git/LUFA/Drivers/USB/Core/AVR8/../AVR8/Endpoint_AVR8.h **** 			{
 147:../../tmk_core/protocol/lufa/LUFA-git/LUFA/Drivers/USB/Core/AVR8/../AVR8/Endpoint_AVR8.h **** 				ENDPOINT_READYWAIT_NoError                 = 0, /**< Endpoint is ready for next packet, no erro
 148:../../tmk_core/protocol/lufa/LUFA-git/LUFA/Drivers/USB/Core/AVR8/../AVR8/Endpoint_AVR8.h **** 				ENDPOINT_READYWAIT_EndpointStalled         = 1, /**< The endpoint was stalled during the stream
 149:../../tmk_core/protocol/lufa/LUFA-git/LUFA/Drivers/USB/Core/AVR8/../AVR8/Endpoint_AVR8.h **** 				                                                 *   transfer by the host or device.
 150:../../tmk_core/protocol/lufa/LUFA-git/LUFA/Drivers/USB/Core/AVR8/../AVR8/Endpoint_AVR8.h **** 				                                                 */
 151:../../tmk_core/protocol/lufa/LUFA-git/LUFA/Drivers/USB/Core/AVR8/../AVR8/Endpoint_AVR8.h **** 				ENDPOINT_READYWAIT_DeviceDisconnected      = 2,	/**< Device was disconnected from the host whil
 152:../../tmk_core/protocol/lufa/LUFA-git/LUFA/Drivers/USB/Core/AVR8/../AVR8/Endpoint_AVR8.h **** 				                                                 *   waiting for the endpoint to become ready.
 153:../../tmk_core/protocol/lufa/LUFA-git/LUFA/Drivers/USB/Core/AVR8/../AVR8/Endpoint_AVR8.h **** 				                                                 */
 154:../../tmk_core/protocol/lufa/LUFA-git/LUFA/Drivers/USB/Core/AVR8/../AVR8/Endpoint_AVR8.h **** 				ENDPOINT_READYWAIT_BusSuspended            = 3, /**< The USB bus has been suspended by the host
 155:../../tmk_core/protocol/lufa/LUFA-git/LUFA/Drivers/USB/Core/AVR8/../AVR8/Endpoint_AVR8.h **** 				                                                 *   no USB endpoint traffic can occur until th
 156:../../tmk_core/protocol/lufa/LUFA-git/LUFA/Drivers/USB/Core/AVR8/../AVR8/Endpoint_AVR8.h **** 				                                                 *   has resumed.
 157:../../tmk_core/protocol/lufa/LUFA-git/LUFA/Drivers/USB/Core/AVR8/../AVR8/Endpoint_AVR8.h **** 				                                                 */
 158:../../tmk_core/protocol/lufa/LUFA-git/LUFA/Drivers/USB/Core/AVR8/../AVR8/Endpoint_AVR8.h **** 				ENDPOINT_READYWAIT_Timeout                 = 4, /**< The host failed to accept or send the next
 159:../../tmk_core/protocol/lufa/LUFA-git/LUFA/Drivers/USB/Core/AVR8/../AVR8/Endpoint_AVR8.h **** 				                                                 *   within the software timeout period set by 
 160:../../tmk_core/protocol/lufa/LUFA-git/LUFA/Drivers/USB/Core/AVR8/../AVR8/Endpoint_AVR8.h **** 				                                                 *   \ref USB_STREAM_TIMEOUT_MS macro.
 161:../../tmk_core/protocol/lufa/LUFA-git/LUFA/Drivers/USB/Core/AVR8/../AVR8/Endpoint_AVR8.h **** 				                                                 */
 162:../../tmk_core/protocol/lufa/LUFA-git/LUFA/Drivers/USB/Core/AVR8/../AVR8/Endpoint_AVR8.h **** 			};
 163:../../tmk_core/protocol/lufa/LUFA-git/LUFA/Drivers/USB/Core/AVR8/../AVR8/Endpoint_AVR8.h **** 
 164:../../tmk_core/protocol/lufa/LUFA-git/LUFA/Drivers/USB/Core/AVR8/../AVR8/Endpoint_AVR8.h **** 		/* Inline Functions: */
 165:../../tmk_core/protocol/lufa/LUFA-git/LUFA/Drivers/USB/Core/AVR8/../AVR8/Endpoint_AVR8.h **** 			/** Configures the specified endpoint address with the given endpoint type, bank size and number
 166:../../tmk_core/protocol/lufa/LUFA-git/LUFA/Drivers/USB/Core/AVR8/../AVR8/Endpoint_AVR8.h **** 			 *  banks. Once configured, the endpoint may be read from or written to, depending on its direct
 167:../../tmk_core/protocol/lufa/LUFA-git/LUFA/Drivers/USB/Core/AVR8/../AVR8/Endpoint_AVR8.h **** 			 *
 168:../../tmk_core/protocol/lufa/LUFA-git/LUFA/Drivers/USB/Core/AVR8/../AVR8/Endpoint_AVR8.h **** 			 *  \param[in] Address    Endpoint address to configure.
 169:../../tmk_core/protocol/lufa/LUFA-git/LUFA/Drivers/USB/Core/AVR8/../AVR8/Endpoint_AVR8.h **** 			 *
 170:../../tmk_core/protocol/lufa/LUFA-git/LUFA/Drivers/USB/Core/AVR8/../AVR8/Endpoint_AVR8.h **** 			 *  \param[in] Type       Type of endpoint to configure, a \c EP_TYPE_* mask. Not all endpoint t
 171:../../tmk_core/protocol/lufa/LUFA-git/LUFA/Drivers/USB/Core/AVR8/../AVR8/Endpoint_AVR8.h **** 			 *                        are available on Low Speed USB devices - refer to the USB 2.0 specific
 172:../../tmk_core/protocol/lufa/LUFA-git/LUFA/Drivers/USB/Core/AVR8/../AVR8/Endpoint_AVR8.h **** 			 *
 173:../../tmk_core/protocol/lufa/LUFA-git/LUFA/Drivers/USB/Core/AVR8/../AVR8/Endpoint_AVR8.h **** 			 *  \param[in] Size       Size of the endpoint's bank, where packets are stored before they are 
 174:../../tmk_core/protocol/lufa/LUFA-git/LUFA/Drivers/USB/Core/AVR8/../AVR8/Endpoint_AVR8.h **** 			 *                        to the USB host, or after they have been received from the USB host (d
 175:../../tmk_core/protocol/lufa/LUFA-git/LUFA/Drivers/USB/Core/AVR8/../AVR8/Endpoint_AVR8.h **** 			 *                        the endpoint's data direction). The bank size must indicate the maximu
 176:../../tmk_core/protocol/lufa/LUFA-git/LUFA/Drivers/USB/Core/AVR8/../AVR8/Endpoint_AVR8.h **** 			 *                        that the endpoint can handle.
 177:../../tmk_core/protocol/lufa/LUFA-git/LUFA/Drivers/USB/Core/AVR8/../AVR8/Endpoint_AVR8.h **** 			 *
 178:../../tmk_core/protocol/lufa/LUFA-git/LUFA/Drivers/USB/Core/AVR8/../AVR8/Endpoint_AVR8.h **** 			 *  \param[in] Banks      Number of banks to use for the endpoint being configured.
 179:../../tmk_core/protocol/lufa/LUFA-git/LUFA/Drivers/USB/Core/AVR8/../AVR8/Endpoint_AVR8.h **** 			 *
 180:../../tmk_core/protocol/lufa/LUFA-git/LUFA/Drivers/USB/Core/AVR8/../AVR8/Endpoint_AVR8.h **** 			 *  \attention When the \c ORDERED_EP_CONFIG compile time option is used, Endpoints <b>must</b> 
 181:../../tmk_core/protocol/lufa/LUFA-git/LUFA/Drivers/USB/Core/AVR8/../AVR8/Endpoint_AVR8.h **** 			 *             ascending order, or bank corruption will occur.
 182:../../tmk_core/protocol/lufa/LUFA-git/LUFA/Drivers/USB/Core/AVR8/../AVR8/Endpoint_AVR8.h **** 			 *
 183:../../tmk_core/protocol/lufa/LUFA-git/LUFA/Drivers/USB/Core/AVR8/../AVR8/Endpoint_AVR8.h **** 			 *  \note Different endpoints may have different maximum packet sizes based on the endpoint's in
 184:../../tmk_core/protocol/lufa/LUFA-git/LUFA/Drivers/USB/Core/AVR8/../AVR8/Endpoint_AVR8.h **** 			 *        refer to the chosen microcontroller model's datasheet to determine the maximum bank si
 185:../../tmk_core/protocol/lufa/LUFA-git/LUFA/Drivers/USB/Core/AVR8/../AVR8/Endpoint_AVR8.h **** 			 *        \n\n
 186:../../tmk_core/protocol/lufa/LUFA-git/LUFA/Drivers/USB/Core/AVR8/../AVR8/Endpoint_AVR8.h **** 			 *
 187:../../tmk_core/protocol/lufa/LUFA-git/LUFA/Drivers/USB/Core/AVR8/../AVR8/Endpoint_AVR8.h **** 			 *  \note The default control endpoint should not be manually configured by the user application
 188:../../tmk_core/protocol/lufa/LUFA-git/LUFA/Drivers/USB/Core/AVR8/../AVR8/Endpoint_AVR8.h **** 			 *        it is automatically configured by the library internally.
 189:../../tmk_core/protocol/lufa/LUFA-git/LUFA/Drivers/USB/Core/AVR8/../AVR8/Endpoint_AVR8.h **** 			 *        \n\n
 190:../../tmk_core/protocol/lufa/LUFA-git/LUFA/Drivers/USB/Core/AVR8/../AVR8/Endpoint_AVR8.h **** 			 *
 191:../../tmk_core/protocol/lufa/LUFA-git/LUFA/Drivers/USB/Core/AVR8/../AVR8/Endpoint_AVR8.h **** 			 *  \note This routine will automatically select the specified endpoint upon success. Upon failu
 192:../../tmk_core/protocol/lufa/LUFA-git/LUFA/Drivers/USB/Core/AVR8/../AVR8/Endpoint_AVR8.h **** 			 *        which failed to reconfigure correctly will be selected.
 193:../../tmk_core/protocol/lufa/LUFA-git/LUFA/Drivers/USB/Core/AVR8/../AVR8/Endpoint_AVR8.h **** 			 *
 194:../../tmk_core/protocol/lufa/LUFA-git/LUFA/Drivers/USB/Core/AVR8/../AVR8/Endpoint_AVR8.h **** 			 *  \return Boolean \c true if the configuration succeeded, \c false otherwise.
 195:../../tmk_core/protocol/lufa/LUFA-git/LUFA/Drivers/USB/Core/AVR8/../AVR8/Endpoint_AVR8.h **** 			 */
 196:../../tmk_core/protocol/lufa/LUFA-git/LUFA/Drivers/USB/Core/AVR8/../AVR8/Endpoint_AVR8.h **** 			static inline bool Endpoint_ConfigureEndpoint(const uint8_t Address,
 197:../../tmk_core/protocol/lufa/LUFA-git/LUFA/Drivers/USB/Core/AVR8/../AVR8/Endpoint_AVR8.h **** 			                                              const uint8_t Type,
 198:../../tmk_core/protocol/lufa/LUFA-git/LUFA/Drivers/USB/Core/AVR8/../AVR8/Endpoint_AVR8.h **** 			                                              const uint16_t Size,
 199:../../tmk_core/protocol/lufa/LUFA-git/LUFA/Drivers/USB/Core/AVR8/../AVR8/Endpoint_AVR8.h **** 			                                              const uint8_t Banks) ATTR_ALWAYS_INLINE;
 200:../../tmk_core/protocol/lufa/LUFA-git/LUFA/Drivers/USB/Core/AVR8/../AVR8/Endpoint_AVR8.h **** 			static inline bool Endpoint_ConfigureEndpoint(const uint8_t Address,
 201:../../tmk_core/protocol/lufa/LUFA-git/LUFA/Drivers/USB/Core/AVR8/../AVR8/Endpoint_AVR8.h **** 			                                              const uint8_t Type,
 202:../../tmk_core/protocol/lufa/LUFA-git/LUFA/Drivers/USB/Core/AVR8/../AVR8/Endpoint_AVR8.h **** 			                                              const uint16_t Size,
 203:../../tmk_core/protocol/lufa/LUFA-git/LUFA/Drivers/USB/Core/AVR8/../AVR8/Endpoint_AVR8.h **** 			                                              const uint8_t Banks)
 204:../../tmk_core/protocol/lufa/LUFA-git/LUFA/Drivers/USB/Core/AVR8/../AVR8/Endpoint_AVR8.h **** 			{
 205:../../tmk_core/protocol/lufa/LUFA-git/LUFA/Drivers/USB/Core/AVR8/../AVR8/Endpoint_AVR8.h **** 				uint8_t Number = (Address & ENDPOINT_EPNUM_MASK);
 206:../../tmk_core/protocol/lufa/LUFA-git/LUFA/Drivers/USB/Core/AVR8/../AVR8/Endpoint_AVR8.h **** 
 207:../../tmk_core/protocol/lufa/LUFA-git/LUFA/Drivers/USB/Core/AVR8/../AVR8/Endpoint_AVR8.h **** 				if (Number >= ENDPOINT_TOTAL_ENDPOINTS)
 208:../../tmk_core/protocol/lufa/LUFA-git/LUFA/Drivers/USB/Core/AVR8/../AVR8/Endpoint_AVR8.h **** 				  return false;
 209:../../tmk_core/protocol/lufa/LUFA-git/LUFA/Drivers/USB/Core/AVR8/../AVR8/Endpoint_AVR8.h **** 
 210:../../tmk_core/protocol/lufa/LUFA-git/LUFA/Drivers/USB/Core/AVR8/../AVR8/Endpoint_AVR8.h **** 				return Endpoint_ConfigureEndpoint_Prv(Number,
 211:../../tmk_core/protocol/lufa/LUFA-git/LUFA/Drivers/USB/Core/AVR8/../AVR8/Endpoint_AVR8.h **** 				                                      ((Type << EPTYPE0) | ((Address & ENDPOINT_DIR_IN) ? (1 <<
 212:../../tmk_core/protocol/lufa/LUFA-git/LUFA/Drivers/USB/Core/AVR8/../AVR8/Endpoint_AVR8.h **** 				                                      ((1 << ALLOC) | ((Banks > 1) ? (1 << EPBK0) : 0) | Endpoi
 213:../../tmk_core/protocol/lufa/LUFA-git/LUFA/Drivers/USB/Core/AVR8/../AVR8/Endpoint_AVR8.h **** 			}
 214:../../tmk_core/protocol/lufa/LUFA-git/LUFA/Drivers/USB/Core/AVR8/../AVR8/Endpoint_AVR8.h **** 
 215:../../tmk_core/protocol/lufa/LUFA-git/LUFA/Drivers/USB/Core/AVR8/../AVR8/Endpoint_AVR8.h **** 			/** Indicates the number of bytes currently stored in the current endpoint's selected bank.
 216:../../tmk_core/protocol/lufa/LUFA-git/LUFA/Drivers/USB/Core/AVR8/../AVR8/Endpoint_AVR8.h **** 			 *
 217:../../tmk_core/protocol/lufa/LUFA-git/LUFA/Drivers/USB/Core/AVR8/../AVR8/Endpoint_AVR8.h **** 			 *  \ingroup Group_EndpointRW_AVR8
 218:../../tmk_core/protocol/lufa/LUFA-git/LUFA/Drivers/USB/Core/AVR8/../AVR8/Endpoint_AVR8.h **** 			 *
 219:../../tmk_core/protocol/lufa/LUFA-git/LUFA/Drivers/USB/Core/AVR8/../AVR8/Endpoint_AVR8.h **** 			 *  \return Total number of bytes in the currently selected Endpoint's FIFO buffer.
 220:../../tmk_core/protocol/lufa/LUFA-git/LUFA/Drivers/USB/Core/AVR8/../AVR8/Endpoint_AVR8.h **** 			 */
 221:../../tmk_core/protocol/lufa/LUFA-git/LUFA/Drivers/USB/Core/AVR8/../AVR8/Endpoint_AVR8.h **** 			static inline uint16_t Endpoint_BytesInEndpoint(void) ATTR_WARN_UNUSED_RESULT ATTR_ALWAYS_INLINE
 222:../../tmk_core/protocol/lufa/LUFA-git/LUFA/Drivers/USB/Core/AVR8/../AVR8/Endpoint_AVR8.h **** 			static inline uint16_t Endpoint_BytesInEndpoint(void)
 223:../../tmk_core/protocol/lufa/LUFA-git/LUFA/Drivers/USB/Core/AVR8/../AVR8/Endpoint_AVR8.h **** 			{
 224:../../tmk_core/protocol/lufa/LUFA-git/LUFA/Drivers/USB/Core/AVR8/../AVR8/Endpoint_AVR8.h **** 				#if (defined(USB_SERIES_6_AVR) || defined(USB_SERIES_7_AVR))
 225:../../tmk_core/protocol/lufa/LUFA-git/LUFA/Drivers/USB/Core/AVR8/../AVR8/Endpoint_AVR8.h **** 					return UEBCX;
 226:../../tmk_core/protocol/lufa/LUFA-git/LUFA/Drivers/USB/Core/AVR8/../AVR8/Endpoint_AVR8.h **** 				#elif defined(USB_SERIES_4_AVR)
 227:../../tmk_core/protocol/lufa/LUFA-git/LUFA/Drivers/USB/Core/AVR8/../AVR8/Endpoint_AVR8.h **** 					return (((uint16_t)UEBCHX << 8) | UEBCLX);
 228:../../tmk_core/protocol/lufa/LUFA-git/LUFA/Drivers/USB/Core/AVR8/../AVR8/Endpoint_AVR8.h **** 				#elif defined(USB_SERIES_2_AVR)
 229:../../tmk_core/protocol/lufa/LUFA-git/LUFA/Drivers/USB/Core/AVR8/../AVR8/Endpoint_AVR8.h **** 					return UEBCLX;
 230:../../tmk_core/protocol/lufa/LUFA-git/LUFA/Drivers/USB/Core/AVR8/../AVR8/Endpoint_AVR8.h **** 				#endif
 231:../../tmk_core/protocol/lufa/LUFA-git/LUFA/Drivers/USB/Core/AVR8/../AVR8/Endpoint_AVR8.h **** 			}
 232:../../tmk_core/protocol/lufa/LUFA-git/LUFA/Drivers/USB/Core/AVR8/../AVR8/Endpoint_AVR8.h **** 
 233:../../tmk_core/protocol/lufa/LUFA-git/LUFA/Drivers/USB/Core/AVR8/../AVR8/Endpoint_AVR8.h **** 			/** Determines the currently selected endpoint's direction.
 234:../../tmk_core/protocol/lufa/LUFA-git/LUFA/Drivers/USB/Core/AVR8/../AVR8/Endpoint_AVR8.h **** 			 *
 235:../../tmk_core/protocol/lufa/LUFA-git/LUFA/Drivers/USB/Core/AVR8/../AVR8/Endpoint_AVR8.h **** 			 *  \return The currently selected endpoint's direction, as a \c ENDPOINT_DIR_* mask.
 236:../../tmk_core/protocol/lufa/LUFA-git/LUFA/Drivers/USB/Core/AVR8/../AVR8/Endpoint_AVR8.h **** 			 */
 237:../../tmk_core/protocol/lufa/LUFA-git/LUFA/Drivers/USB/Core/AVR8/../AVR8/Endpoint_AVR8.h **** 			static inline uint8_t Endpoint_GetEndpointDirection(void) ATTR_WARN_UNUSED_RESULT ATTR_ALWAYS_IN
 238:../../tmk_core/protocol/lufa/LUFA-git/LUFA/Drivers/USB/Core/AVR8/../AVR8/Endpoint_AVR8.h **** 			static inline uint8_t Endpoint_GetEndpointDirection(void)
 239:../../tmk_core/protocol/lufa/LUFA-git/LUFA/Drivers/USB/Core/AVR8/../AVR8/Endpoint_AVR8.h **** 			{
 240:../../tmk_core/protocol/lufa/LUFA-git/LUFA/Drivers/USB/Core/AVR8/../AVR8/Endpoint_AVR8.h **** 				return (UECFG0X & (1 << EPDIR)) ? ENDPOINT_DIR_IN : ENDPOINT_DIR_OUT;
 241:../../tmk_core/protocol/lufa/LUFA-git/LUFA/Drivers/USB/Core/AVR8/../AVR8/Endpoint_AVR8.h **** 			}
 242:../../tmk_core/protocol/lufa/LUFA-git/LUFA/Drivers/USB/Core/AVR8/../AVR8/Endpoint_AVR8.h **** 
 243:../../tmk_core/protocol/lufa/LUFA-git/LUFA/Drivers/USB/Core/AVR8/../AVR8/Endpoint_AVR8.h **** 			/** Get the endpoint address of the currently selected endpoint. This is typically used to save
 244:../../tmk_core/protocol/lufa/LUFA-git/LUFA/Drivers/USB/Core/AVR8/../AVR8/Endpoint_AVR8.h **** 			 *  the currently selected endpoint so that it can be restored after another endpoint has been
 245:../../tmk_core/protocol/lufa/LUFA-git/LUFA/Drivers/USB/Core/AVR8/../AVR8/Endpoint_AVR8.h **** 			 *  manipulated.
 246:../../tmk_core/protocol/lufa/LUFA-git/LUFA/Drivers/USB/Core/AVR8/../AVR8/Endpoint_AVR8.h **** 			 *
 247:../../tmk_core/protocol/lufa/LUFA-git/LUFA/Drivers/USB/Core/AVR8/../AVR8/Endpoint_AVR8.h **** 			 *  \return Index of the currently selected endpoint.
 248:../../tmk_core/protocol/lufa/LUFA-git/LUFA/Drivers/USB/Core/AVR8/../AVR8/Endpoint_AVR8.h **** 			 */
 249:../../tmk_core/protocol/lufa/LUFA-git/LUFA/Drivers/USB/Core/AVR8/../AVR8/Endpoint_AVR8.h **** 			static inline uint8_t Endpoint_GetCurrentEndpoint(void) ATTR_WARN_UNUSED_RESULT ATTR_ALWAYS_INLI
 250:../../tmk_core/protocol/lufa/LUFA-git/LUFA/Drivers/USB/Core/AVR8/../AVR8/Endpoint_AVR8.h **** 			static inline uint8_t Endpoint_GetCurrentEndpoint(void)
 251:../../tmk_core/protocol/lufa/LUFA-git/LUFA/Drivers/USB/Core/AVR8/../AVR8/Endpoint_AVR8.h **** 			{
 252:../../tmk_core/protocol/lufa/LUFA-git/LUFA/Drivers/USB/Core/AVR8/../AVR8/Endpoint_AVR8.h **** 				#if !defined(CONTROL_ONLY_DEVICE)
 253:../../tmk_core/protocol/lufa/LUFA-git/LUFA/Drivers/USB/Core/AVR8/../AVR8/Endpoint_AVR8.h **** 					return ((UENUM & ENDPOINT_EPNUM_MASK) | Endpoint_GetEndpointDirection());
  61               		.loc 2 253 0
  62 0014 2091 E900 		lds r18,233
  63 0018 2F70      		andi r18,lo8(15)
  64               	.LBB167:
  65               	.LBB168:
 240:../../tmk_core/protocol/lufa/LUFA-git/LUFA/Drivers/USB/Core/AVR8/../AVR8/Endpoint_AVR8.h **** 			}
  66               		.loc 2 240 0
  67 001a 9091 EC00 		lds r25,236
  68 001e 90FD      		sbrc r25,0
  69 0020 00C0      		rjmp .L15
  70 0022 90E0      		ldi r25,0
  71               	.L4:
  72               	.LBE168:
  73               	.LBE167:
  74               		.loc 2 253 0
  75 0024 922B      		or r25,r18
  76               	.LVL3:
  77               	.LBE166:
  78               	.LBE165:
  79               	.LBB172:
  80               	.LBB173:
 254:../../tmk_core/protocol/lufa/LUFA-git/LUFA/Drivers/USB/Core/AVR8/../AVR8/Endpoint_AVR8.h **** 				#else
 255:../../tmk_core/protocol/lufa/LUFA-git/LUFA/Drivers/USB/Core/AVR8/../AVR8/Endpoint_AVR8.h **** 					return ENDPOINT_CONTROLEP;
 256:../../tmk_core/protocol/lufa/LUFA-git/LUFA/Drivers/USB/Core/AVR8/../AVR8/Endpoint_AVR8.h **** 				#endif
 257:../../tmk_core/protocol/lufa/LUFA-git/LUFA/Drivers/USB/Core/AVR8/../AVR8/Endpoint_AVR8.h **** 			}
 258:../../tmk_core/protocol/lufa/LUFA-git/LUFA/Drivers/USB/Core/AVR8/../AVR8/Endpoint_AVR8.h **** 
 259:../../tmk_core/protocol/lufa/LUFA-git/LUFA/Drivers/USB/Core/AVR8/../AVR8/Endpoint_AVR8.h **** 			/** Selects the given endpoint address.
 260:../../tmk_core/protocol/lufa/LUFA-git/LUFA/Drivers/USB/Core/AVR8/../AVR8/Endpoint_AVR8.h **** 			 *
 261:../../tmk_core/protocol/lufa/LUFA-git/LUFA/Drivers/USB/Core/AVR8/../AVR8/Endpoint_AVR8.h **** 			 *  Any endpoint operations which do not require the endpoint address to be indicated will opera
 262:../../tmk_core/protocol/lufa/LUFA-git/LUFA/Drivers/USB/Core/AVR8/../AVR8/Endpoint_AVR8.h **** 			 *  the currently selected endpoint.
 263:../../tmk_core/protocol/lufa/LUFA-git/LUFA/Drivers/USB/Core/AVR8/../AVR8/Endpoint_AVR8.h **** 			 *
 264:../../tmk_core/protocol/lufa/LUFA-git/LUFA/Drivers/USB/Core/AVR8/../AVR8/Endpoint_AVR8.h **** 			 *  \param[in] Address Endpoint address to select.
 265:../../tmk_core/protocol/lufa/LUFA-git/LUFA/Drivers/USB/Core/AVR8/../AVR8/Endpoint_AVR8.h **** 			 */
 266:../../tmk_core/protocol/lufa/LUFA-git/LUFA/Drivers/USB/Core/AVR8/../AVR8/Endpoint_AVR8.h **** 			static inline void Endpoint_SelectEndpoint(const uint8_t Address) ATTR_ALWAYS_INLINE;
 267:../../tmk_core/protocol/lufa/LUFA-git/LUFA/Drivers/USB/Core/AVR8/../AVR8/Endpoint_AVR8.h **** 			static inline void Endpoint_SelectEndpoint(const uint8_t Address)
 268:../../tmk_core/protocol/lufa/LUFA-git/LUFA/Drivers/USB/Core/AVR8/../AVR8/Endpoint_AVR8.h **** 			{
 269:../../tmk_core/protocol/lufa/LUFA-git/LUFA/Drivers/USB/Core/AVR8/../AVR8/Endpoint_AVR8.h **** 				#if !defined(CONTROL_ONLY_DEVICE)
 270:../../tmk_core/protocol/lufa/LUFA-git/LUFA/Drivers/USB/Core/AVR8/../AVR8/Endpoint_AVR8.h **** 					UENUM = (Address & ENDPOINT_EPNUM_MASK);
  81               		.loc 2 270 0
  82 0026 24E0      		ldi r18,lo8(4)
  83 0028 2093 E900 		sts 233,r18
  84               	.LVL4:
  85               	.LBE173:
  86               	.LBE172:
  87               	.LBB174:
  88               	.LBB175:
 271:../../tmk_core/protocol/lufa/LUFA-git/LUFA/Drivers/USB/Core/AVR8/../AVR8/Endpoint_AVR8.h **** 				#endif
 272:../../tmk_core/protocol/lufa/LUFA-git/LUFA/Drivers/USB/Core/AVR8/../AVR8/Endpoint_AVR8.h **** 			}
 273:../../tmk_core/protocol/lufa/LUFA-git/LUFA/Drivers/USB/Core/AVR8/../AVR8/Endpoint_AVR8.h **** 
 274:../../tmk_core/protocol/lufa/LUFA-git/LUFA/Drivers/USB/Core/AVR8/../AVR8/Endpoint_AVR8.h **** 			/** Resets the endpoint bank FIFO. This clears all the endpoint banks and resets the USB control
 275:../../tmk_core/protocol/lufa/LUFA-git/LUFA/Drivers/USB/Core/AVR8/../AVR8/Endpoint_AVR8.h **** 			 *  data In and Out pointers to the bank's contents.
 276:../../tmk_core/protocol/lufa/LUFA-git/LUFA/Drivers/USB/Core/AVR8/../AVR8/Endpoint_AVR8.h **** 			 *
 277:../../tmk_core/protocol/lufa/LUFA-git/LUFA/Drivers/USB/Core/AVR8/../AVR8/Endpoint_AVR8.h **** 			 *  \param[in] Address  Endpoint address whose FIFO buffers are to be reset.
 278:../../tmk_core/protocol/lufa/LUFA-git/LUFA/Drivers/USB/Core/AVR8/../AVR8/Endpoint_AVR8.h **** 			 */
 279:../../tmk_core/protocol/lufa/LUFA-git/LUFA/Drivers/USB/Core/AVR8/../AVR8/Endpoint_AVR8.h **** 			static inline void Endpoint_ResetEndpoint(const uint8_t Address) ATTR_ALWAYS_INLINE;
 280:../../tmk_core/protocol/lufa/LUFA-git/LUFA/Drivers/USB/Core/AVR8/../AVR8/Endpoint_AVR8.h **** 			static inline void Endpoint_ResetEndpoint(const uint8_t Address)
 281:../../tmk_core/protocol/lufa/LUFA-git/LUFA/Drivers/USB/Core/AVR8/../AVR8/Endpoint_AVR8.h **** 			{
 282:../../tmk_core/protocol/lufa/LUFA-git/LUFA/Drivers/USB/Core/AVR8/../AVR8/Endpoint_AVR8.h **** 				UERST = (1 << (Address & ENDPOINT_EPNUM_MASK));
 283:../../tmk_core/protocol/lufa/LUFA-git/LUFA/Drivers/USB/Core/AVR8/../AVR8/Endpoint_AVR8.h **** 				UERST = 0;
 284:../../tmk_core/protocol/lufa/LUFA-git/LUFA/Drivers/USB/Core/AVR8/../AVR8/Endpoint_AVR8.h **** 			}
 285:../../tmk_core/protocol/lufa/LUFA-git/LUFA/Drivers/USB/Core/AVR8/../AVR8/Endpoint_AVR8.h **** 
 286:../../tmk_core/protocol/lufa/LUFA-git/LUFA/Drivers/USB/Core/AVR8/../AVR8/Endpoint_AVR8.h **** 			/** Enables the currently selected endpoint so that data can be sent and received through it to
 287:../../tmk_core/protocol/lufa/LUFA-git/LUFA/Drivers/USB/Core/AVR8/../AVR8/Endpoint_AVR8.h **** 			 *  and from a host.
 288:../../tmk_core/protocol/lufa/LUFA-git/LUFA/Drivers/USB/Core/AVR8/../AVR8/Endpoint_AVR8.h **** 			 *
 289:../../tmk_core/protocol/lufa/LUFA-git/LUFA/Drivers/USB/Core/AVR8/../AVR8/Endpoint_AVR8.h **** 			 *  \note Endpoints must first be configured properly via \ref Endpoint_ConfigureEndpoint().
 290:../../tmk_core/protocol/lufa/LUFA-git/LUFA/Drivers/USB/Core/AVR8/../AVR8/Endpoint_AVR8.h **** 			 */
 291:../../tmk_core/protocol/lufa/LUFA-git/LUFA/Drivers/USB/Core/AVR8/../AVR8/Endpoint_AVR8.h **** 			static inline void Endpoint_EnableEndpoint(void) ATTR_ALWAYS_INLINE;
 292:../../tmk_core/protocol/lufa/LUFA-git/LUFA/Drivers/USB/Core/AVR8/../AVR8/Endpoint_AVR8.h **** 			static inline void Endpoint_EnableEndpoint(void)
 293:../../tmk_core/protocol/lufa/LUFA-git/LUFA/Drivers/USB/Core/AVR8/../AVR8/Endpoint_AVR8.h **** 			{
 294:../../tmk_core/protocol/lufa/LUFA-git/LUFA/Drivers/USB/Core/AVR8/../AVR8/Endpoint_AVR8.h **** 				UECONX |= (1 << EPEN);
 295:../../tmk_core/protocol/lufa/LUFA-git/LUFA/Drivers/USB/Core/AVR8/../AVR8/Endpoint_AVR8.h **** 			}
 296:../../tmk_core/protocol/lufa/LUFA-git/LUFA/Drivers/USB/Core/AVR8/../AVR8/Endpoint_AVR8.h **** 
 297:../../tmk_core/protocol/lufa/LUFA-git/LUFA/Drivers/USB/Core/AVR8/../AVR8/Endpoint_AVR8.h **** 			/** Disables the currently selected endpoint so that data cannot be sent and received through it
 298:../../tmk_core/protocol/lufa/LUFA-git/LUFA/Drivers/USB/Core/AVR8/../AVR8/Endpoint_AVR8.h **** 			 *  to and from a host.
 299:../../tmk_core/protocol/lufa/LUFA-git/LUFA/Drivers/USB/Core/AVR8/../AVR8/Endpoint_AVR8.h **** 			 */
 300:../../tmk_core/protocol/lufa/LUFA-git/LUFA/Drivers/USB/Core/AVR8/../AVR8/Endpoint_AVR8.h **** 			static inline void Endpoint_DisableEndpoint(void) ATTR_ALWAYS_INLINE;
 301:../../tmk_core/protocol/lufa/LUFA-git/LUFA/Drivers/USB/Core/AVR8/../AVR8/Endpoint_AVR8.h **** 			static inline void Endpoint_DisableEndpoint(void)
 302:../../tmk_core/protocol/lufa/LUFA-git/LUFA/Drivers/USB/Core/AVR8/../AVR8/Endpoint_AVR8.h **** 			{
 303:../../tmk_core/protocol/lufa/LUFA-git/LUFA/Drivers/USB/Core/AVR8/../AVR8/Endpoint_AVR8.h **** 				UECONX &= ~(1 << EPEN);
 304:../../tmk_core/protocol/lufa/LUFA-git/LUFA/Drivers/USB/Core/AVR8/../AVR8/Endpoint_AVR8.h **** 			}
 305:../../tmk_core/protocol/lufa/LUFA-git/LUFA/Drivers/USB/Core/AVR8/../AVR8/Endpoint_AVR8.h **** 
 306:../../tmk_core/protocol/lufa/LUFA-git/LUFA/Drivers/USB/Core/AVR8/../AVR8/Endpoint_AVR8.h **** 			/** Determines if the currently selected endpoint is enabled, but not necessarily configured.
 307:../../tmk_core/protocol/lufa/LUFA-git/LUFA/Drivers/USB/Core/AVR8/../AVR8/Endpoint_AVR8.h **** 			 *
 308:../../tmk_core/protocol/lufa/LUFA-git/LUFA/Drivers/USB/Core/AVR8/../AVR8/Endpoint_AVR8.h **** 			 * \return Boolean \c true if the currently selected endpoint is enabled, \c false otherwise.
 309:../../tmk_core/protocol/lufa/LUFA-git/LUFA/Drivers/USB/Core/AVR8/../AVR8/Endpoint_AVR8.h **** 			 */
 310:../../tmk_core/protocol/lufa/LUFA-git/LUFA/Drivers/USB/Core/AVR8/../AVR8/Endpoint_AVR8.h **** 			static inline bool Endpoint_IsEnabled(void) ATTR_WARN_UNUSED_RESULT ATTR_ALWAYS_INLINE;
 311:../../tmk_core/protocol/lufa/LUFA-git/LUFA/Drivers/USB/Core/AVR8/../AVR8/Endpoint_AVR8.h **** 			static inline bool Endpoint_IsEnabled(void)
 312:../../tmk_core/protocol/lufa/LUFA-git/LUFA/Drivers/USB/Core/AVR8/../AVR8/Endpoint_AVR8.h **** 			{
 313:../../tmk_core/protocol/lufa/LUFA-git/LUFA/Drivers/USB/Core/AVR8/../AVR8/Endpoint_AVR8.h **** 				return ((UECONX & (1 << EPEN)) ? true : false);
  89               		.loc 2 313 0
  90 002c 2091 EB00 		lds r18,235
  91               	.LBE175:
  92               	.LBE174:
 545:../../tmk_core/protocol/lufa/lufa.c ****         return -1;
 546:../../tmk_core/protocol/lufa/lufa.c **** 
 547:../../tmk_core/protocol/lufa/lufa.c ****     uint8_t ep = Endpoint_GetCurrentEndpoint();
 548:../../tmk_core/protocol/lufa/lufa.c ****     Endpoint_SelectEndpoint(CONSOLE_IN_EPNUM);
 549:../../tmk_core/protocol/lufa/lufa.c ****     if (!Endpoint_IsEnabled() || !Endpoint_IsConfigured()) {
  93               		.loc 1 549 0
  94 0030 20FF      		sbrs r18,0
  95 0032 00C0      		rjmp .L9
  96               	.LBB176:
  97               	.LBB177:
 314:../../tmk_core/protocol/lufa/LUFA-git/LUFA/Drivers/USB/Core/AVR8/../AVR8/Endpoint_AVR8.h **** 			}
 315:../../tmk_core/protocol/lufa/LUFA-git/LUFA/Drivers/USB/Core/AVR8/../AVR8/Endpoint_AVR8.h **** 
 316:../../tmk_core/protocol/lufa/LUFA-git/LUFA/Drivers/USB/Core/AVR8/../AVR8/Endpoint_AVR8.h **** 			/** Retrieves the number of busy banks in the currently selected endpoint, which have been queue
 317:../../tmk_core/protocol/lufa/LUFA-git/LUFA/Drivers/USB/Core/AVR8/../AVR8/Endpoint_AVR8.h **** 			 *  transmission via the \ref Endpoint_ClearIN() command, or are awaiting acknowledgment via the
 318:../../tmk_core/protocol/lufa/LUFA-git/LUFA/Drivers/USB/Core/AVR8/../AVR8/Endpoint_AVR8.h **** 			 *  \ref Endpoint_ClearOUT() command.
 319:../../tmk_core/protocol/lufa/LUFA-git/LUFA/Drivers/USB/Core/AVR8/../AVR8/Endpoint_AVR8.h **** 			 *
 320:../../tmk_core/protocol/lufa/LUFA-git/LUFA/Drivers/USB/Core/AVR8/../AVR8/Endpoint_AVR8.h **** 			 *  \ingroup Group_EndpointPacketManagement_AVR8
 321:../../tmk_core/protocol/lufa/LUFA-git/LUFA/Drivers/USB/Core/AVR8/../AVR8/Endpoint_AVR8.h **** 			 *
 322:../../tmk_core/protocol/lufa/LUFA-git/LUFA/Drivers/USB/Core/AVR8/../AVR8/Endpoint_AVR8.h **** 			 *  \return Total number of busy banks in the selected endpoint.
 323:../../tmk_core/protocol/lufa/LUFA-git/LUFA/Drivers/USB/Core/AVR8/../AVR8/Endpoint_AVR8.h **** 			 */
 324:../../tmk_core/protocol/lufa/LUFA-git/LUFA/Drivers/USB/Core/AVR8/../AVR8/Endpoint_AVR8.h **** 			static inline uint8_t Endpoint_GetBusyBanks(void) ATTR_ALWAYS_INLINE ATTR_WARN_UNUSED_RESULT;
 325:../../tmk_core/protocol/lufa/LUFA-git/LUFA/Drivers/USB/Core/AVR8/../AVR8/Endpoint_AVR8.h **** 			static inline uint8_t Endpoint_GetBusyBanks(void)
 326:../../tmk_core/protocol/lufa/LUFA-git/LUFA/Drivers/USB/Core/AVR8/../AVR8/Endpoint_AVR8.h **** 			{
 327:../../tmk_core/protocol/lufa/LUFA-git/LUFA/Drivers/USB/Core/AVR8/../AVR8/Endpoint_AVR8.h **** 				return (UESTA0X & (0x03 << NBUSYBK0));
 328:../../tmk_core/protocol/lufa/LUFA-git/LUFA/Drivers/USB/Core/AVR8/../AVR8/Endpoint_AVR8.h **** 			}
 329:../../tmk_core/protocol/lufa/LUFA-git/LUFA/Drivers/USB/Core/AVR8/../AVR8/Endpoint_AVR8.h **** 
 330:../../tmk_core/protocol/lufa/LUFA-git/LUFA/Drivers/USB/Core/AVR8/../AVR8/Endpoint_AVR8.h **** 			/** Aborts all pending IN transactions on the currently selected endpoint, once the bank
 331:../../tmk_core/protocol/lufa/LUFA-git/LUFA/Drivers/USB/Core/AVR8/../AVR8/Endpoint_AVR8.h **** 			 *  has been queued for transmission to the host via \ref Endpoint_ClearIN(). This function
 332:../../tmk_core/protocol/lufa/LUFA-git/LUFA/Drivers/USB/Core/AVR8/../AVR8/Endpoint_AVR8.h **** 			 *  will terminate all queued transactions, resetting the endpoint banks ready for a new
 333:../../tmk_core/protocol/lufa/LUFA-git/LUFA/Drivers/USB/Core/AVR8/../AVR8/Endpoint_AVR8.h **** 			 *  packet.
 334:../../tmk_core/protocol/lufa/LUFA-git/LUFA/Drivers/USB/Core/AVR8/../AVR8/Endpoint_AVR8.h **** 			 *
 335:../../tmk_core/protocol/lufa/LUFA-git/LUFA/Drivers/USB/Core/AVR8/../AVR8/Endpoint_AVR8.h **** 			 *  \ingroup Group_EndpointPacketManagement_AVR8
 336:../../tmk_core/protocol/lufa/LUFA-git/LUFA/Drivers/USB/Core/AVR8/../AVR8/Endpoint_AVR8.h **** 			 */
 337:../../tmk_core/protocol/lufa/LUFA-git/LUFA/Drivers/USB/Core/AVR8/../AVR8/Endpoint_AVR8.h **** 			static inline void Endpoint_AbortPendingIN(void)
 338:../../tmk_core/protocol/lufa/LUFA-git/LUFA/Drivers/USB/Core/AVR8/../AVR8/Endpoint_AVR8.h **** 			{
 339:../../tmk_core/protocol/lufa/LUFA-git/LUFA/Drivers/USB/Core/AVR8/../AVR8/Endpoint_AVR8.h **** 				while (Endpoint_GetBusyBanks() != 0)
 340:../../tmk_core/protocol/lufa/LUFA-git/LUFA/Drivers/USB/Core/AVR8/../AVR8/Endpoint_AVR8.h **** 				{
 341:../../tmk_core/protocol/lufa/LUFA-git/LUFA/Drivers/USB/Core/AVR8/../AVR8/Endpoint_AVR8.h **** 					UEINTX |= (1 << RXOUTI);
 342:../../tmk_core/protocol/lufa/LUFA-git/LUFA/Drivers/USB/Core/AVR8/../AVR8/Endpoint_AVR8.h **** 					while (UEINTX & (1 << RXOUTI));
 343:../../tmk_core/protocol/lufa/LUFA-git/LUFA/Drivers/USB/Core/AVR8/../AVR8/Endpoint_AVR8.h **** 				}
 344:../../tmk_core/protocol/lufa/LUFA-git/LUFA/Drivers/USB/Core/AVR8/../AVR8/Endpoint_AVR8.h **** 			}
 345:../../tmk_core/protocol/lufa/LUFA-git/LUFA/Drivers/USB/Core/AVR8/../AVR8/Endpoint_AVR8.h **** 
 346:../../tmk_core/protocol/lufa/LUFA-git/LUFA/Drivers/USB/Core/AVR8/../AVR8/Endpoint_AVR8.h **** 			/** Determines if the currently selected endpoint may be read from (if data is waiting in the en
 347:../../tmk_core/protocol/lufa/LUFA-git/LUFA/Drivers/USB/Core/AVR8/../AVR8/Endpoint_AVR8.h **** 			 *  bank and the endpoint is an OUT direction, or if the bank is not yet full if the endpoint is
 348:../../tmk_core/protocol/lufa/LUFA-git/LUFA/Drivers/USB/Core/AVR8/../AVR8/Endpoint_AVR8.h **** 			 *  direction). This function will return false if an error has occurred in the endpoint, if the
 349:../../tmk_core/protocol/lufa/LUFA-git/LUFA/Drivers/USB/Core/AVR8/../AVR8/Endpoint_AVR8.h **** 			 *  is an OUT direction and no packet (or an empty packet) has been received, or if the endpoint
 350:../../tmk_core/protocol/lufa/LUFA-git/LUFA/Drivers/USB/Core/AVR8/../AVR8/Endpoint_AVR8.h **** 			 *  direction and the endpoint bank is full.
 351:../../tmk_core/protocol/lufa/LUFA-git/LUFA/Drivers/USB/Core/AVR8/../AVR8/Endpoint_AVR8.h **** 			 *
 352:../../tmk_core/protocol/lufa/LUFA-git/LUFA/Drivers/USB/Core/AVR8/../AVR8/Endpoint_AVR8.h **** 			 *  \ingroup Group_EndpointPacketManagement_AVR8
 353:../../tmk_core/protocol/lufa/LUFA-git/LUFA/Drivers/USB/Core/AVR8/../AVR8/Endpoint_AVR8.h **** 			 *
 354:../../tmk_core/protocol/lufa/LUFA-git/LUFA/Drivers/USB/Core/AVR8/../AVR8/Endpoint_AVR8.h **** 			 *  \return Boolean \c true if the currently selected endpoint may be read from or written to, d
 355:../../tmk_core/protocol/lufa/LUFA-git/LUFA/Drivers/USB/Core/AVR8/../AVR8/Endpoint_AVR8.h **** 			 *          on its direction.
 356:../../tmk_core/protocol/lufa/LUFA-git/LUFA/Drivers/USB/Core/AVR8/../AVR8/Endpoint_AVR8.h **** 			 */
 357:../../tmk_core/protocol/lufa/LUFA-git/LUFA/Drivers/USB/Core/AVR8/../AVR8/Endpoint_AVR8.h **** 			static inline bool Endpoint_IsReadWriteAllowed(void) ATTR_WARN_UNUSED_RESULT ATTR_ALWAYS_INLINE;
 358:../../tmk_core/protocol/lufa/LUFA-git/LUFA/Drivers/USB/Core/AVR8/../AVR8/Endpoint_AVR8.h **** 			static inline bool Endpoint_IsReadWriteAllowed(void)
 359:../../tmk_core/protocol/lufa/LUFA-git/LUFA/Drivers/USB/Core/AVR8/../AVR8/Endpoint_AVR8.h **** 			{
 360:../../tmk_core/protocol/lufa/LUFA-git/LUFA/Drivers/USB/Core/AVR8/../AVR8/Endpoint_AVR8.h **** 				return ((UEINTX & (1 << RWAL)) ? true : false);
 361:../../tmk_core/protocol/lufa/LUFA-git/LUFA/Drivers/USB/Core/AVR8/../AVR8/Endpoint_AVR8.h **** 			}
 362:../../tmk_core/protocol/lufa/LUFA-git/LUFA/Drivers/USB/Core/AVR8/../AVR8/Endpoint_AVR8.h **** 
 363:../../tmk_core/protocol/lufa/LUFA-git/LUFA/Drivers/USB/Core/AVR8/../AVR8/Endpoint_AVR8.h **** 			/** Determines if the currently selected endpoint is configured.
 364:../../tmk_core/protocol/lufa/LUFA-git/LUFA/Drivers/USB/Core/AVR8/../AVR8/Endpoint_AVR8.h **** 			 *
 365:../../tmk_core/protocol/lufa/LUFA-git/LUFA/Drivers/USB/Core/AVR8/../AVR8/Endpoint_AVR8.h **** 			 *  \return Boolean \c true if the currently selected endpoint has been configured, \c false oth
 366:../../tmk_core/protocol/lufa/LUFA-git/LUFA/Drivers/USB/Core/AVR8/../AVR8/Endpoint_AVR8.h **** 			 */
 367:../../tmk_core/protocol/lufa/LUFA-git/LUFA/Drivers/USB/Core/AVR8/../AVR8/Endpoint_AVR8.h **** 			static inline bool Endpoint_IsConfigured(void) ATTR_WARN_UNUSED_RESULT ATTR_ALWAYS_INLINE;
 368:../../tmk_core/protocol/lufa/LUFA-git/LUFA/Drivers/USB/Core/AVR8/../AVR8/Endpoint_AVR8.h **** 			static inline bool Endpoint_IsConfigured(void)
 369:../../tmk_core/protocol/lufa/LUFA-git/LUFA/Drivers/USB/Core/AVR8/../AVR8/Endpoint_AVR8.h **** 			{
 370:../../tmk_core/protocol/lufa/LUFA-git/LUFA/Drivers/USB/Core/AVR8/../AVR8/Endpoint_AVR8.h **** 				return ((UESTA0X & (1 << CFGOK)) ? true : false);
  98               		.loc 2 370 0
  99 0034 2091 EE00 		lds r18,238
 100               	.LBE177:
 101               	.LBE176:
 102               		.loc 1 549 0
 103 0038 27FF      		sbrs r18,7
 104 003a 00C0      		rjmp .L9
 550:../../tmk_core/protocol/lufa/lufa.c ****         goto ERROR_EXIT;
 551:../../tmk_core/protocol/lufa/lufa.c ****     }
 552:../../tmk_core/protocol/lufa/lufa.c **** 
 553:../../tmk_core/protocol/lufa/lufa.c ****     if (timeouted && !Endpoint_IsReadWriteAllowed()) {
 105               		.loc 1 553 0
 106 003c 2091 0000 		lds r18,timeouted.4898
 107 0040 2223      		tst r18
 108 0042 01F0      		breq .L6
 109               	.LBB178:
 110               	.LBB179:
 360:../../tmk_core/protocol/lufa/LUFA-git/LUFA/Drivers/USB/Core/AVR8/../AVR8/Endpoint_AVR8.h **** 			}
 111               		.loc 2 360 0
 112 0044 2091 E800 		lds r18,232
 113               	.LBE179:
 114               	.LBE178:
 115               		.loc 1 553 0
 116 0048 25FF      		sbrs r18,5
 117 004a 00C0      		rjmp .L9
 118               	.L6:
 554:../../tmk_core/protocol/lufa/lufa.c ****         goto ERROR_EXIT;
 555:../../tmk_core/protocol/lufa/lufa.c ****     }
 556:../../tmk_core/protocol/lufa/lufa.c **** 
 557:../../tmk_core/protocol/lufa/lufa.c ****     timeouted = false;
 119               		.loc 1 557 0
 120 004c 1092 0000 		sts timeouted.4898,__zero_reg__
 121               	.LVL5:
 558:../../tmk_core/protocol/lufa/lufa.c **** 
 559:../../tmk_core/protocol/lufa/lufa.c ****     uint8_t timeout = SEND_TIMEOUT;
 560:../../tmk_core/protocol/lufa/lufa.c ****     while (!Endpoint_IsReadWriteAllowed()) {
 122               		.loc 1 560 0
 123 0050 26E0      		ldi r18,lo8(6)
 124               	.LVL6:
 125               	.L7:
 126               	.LBB180:
 127               	.LBB181:
 360:../../tmk_core/protocol/lufa/LUFA-git/LUFA/Drivers/USB/Core/AVR8/../AVR8/Endpoint_AVR8.h **** 			}
 128               		.loc 2 360 0
 129 0052 3091 E800 		lds r19,232
 130               	.LBE181:
 131               	.LBE180:
 132               		.loc 1 560 0
 133 0056 35FF      		sbrs r19,5
 134 0058 00C0      		rjmp .L10
 135               	.LVL7:
 136               	.LBB182:
 137               	.LBB183:
 371:../../tmk_core/protocol/lufa/LUFA-git/LUFA/Drivers/USB/Core/AVR8/../AVR8/Endpoint_AVR8.h **** 			}
 372:../../tmk_core/protocol/lufa/LUFA-git/LUFA/Drivers/USB/Core/AVR8/../AVR8/Endpoint_AVR8.h **** 
 373:../../tmk_core/protocol/lufa/LUFA-git/LUFA/Drivers/USB/Core/AVR8/../AVR8/Endpoint_AVR8.h **** 			/** Returns a mask indicating which INTERRUPT type endpoints have interrupted - i.e. their
 374:../../tmk_core/protocol/lufa/LUFA-git/LUFA/Drivers/USB/Core/AVR8/../AVR8/Endpoint_AVR8.h **** 			 *  interrupt duration has elapsed. Which endpoints have interrupted can be determined by
 375:../../tmk_core/protocol/lufa/LUFA-git/LUFA/Drivers/USB/Core/AVR8/../AVR8/Endpoint_AVR8.h **** 			 *  masking the return value against <tt>(1 << <i>{Endpoint Number}</i>)</tt>.
 376:../../tmk_core/protocol/lufa/LUFA-git/LUFA/Drivers/USB/Core/AVR8/../AVR8/Endpoint_AVR8.h **** 			 *
 377:../../tmk_core/protocol/lufa/LUFA-git/LUFA/Drivers/USB/Core/AVR8/../AVR8/Endpoint_AVR8.h **** 			 *  \return Mask whose bits indicate which endpoints have interrupted.
 378:../../tmk_core/protocol/lufa/LUFA-git/LUFA/Drivers/USB/Core/AVR8/../AVR8/Endpoint_AVR8.h **** 			 */
 379:../../tmk_core/protocol/lufa/LUFA-git/LUFA/Drivers/USB/Core/AVR8/../AVR8/Endpoint_AVR8.h **** 			static inline uint8_t Endpoint_GetEndpointInterrupts(void) ATTR_WARN_UNUSED_RESULT ATTR_ALWAYS_I
 380:../../tmk_core/protocol/lufa/LUFA-git/LUFA/Drivers/USB/Core/AVR8/../AVR8/Endpoint_AVR8.h **** 			static inline uint8_t Endpoint_GetEndpointInterrupts(void)
 381:../../tmk_core/protocol/lufa/LUFA-git/LUFA/Drivers/USB/Core/AVR8/../AVR8/Endpoint_AVR8.h **** 			{
 382:../../tmk_core/protocol/lufa/LUFA-git/LUFA/Drivers/USB/Core/AVR8/../AVR8/Endpoint_AVR8.h **** 				return UEINT;
 383:../../tmk_core/protocol/lufa/LUFA-git/LUFA/Drivers/USB/Core/AVR8/../AVR8/Endpoint_AVR8.h **** 			}
 384:../../tmk_core/protocol/lufa/LUFA-git/LUFA/Drivers/USB/Core/AVR8/../AVR8/Endpoint_AVR8.h **** 
 385:../../tmk_core/protocol/lufa/LUFA-git/LUFA/Drivers/USB/Core/AVR8/../AVR8/Endpoint_AVR8.h **** 			/** Determines if the specified endpoint number has interrupted (valid only for INTERRUPT type
 386:../../tmk_core/protocol/lufa/LUFA-git/LUFA/Drivers/USB/Core/AVR8/../AVR8/Endpoint_AVR8.h **** 			 *  endpoints).
 387:../../tmk_core/protocol/lufa/LUFA-git/LUFA/Drivers/USB/Core/AVR8/../AVR8/Endpoint_AVR8.h **** 			 *
 388:../../tmk_core/protocol/lufa/LUFA-git/LUFA/Drivers/USB/Core/AVR8/../AVR8/Endpoint_AVR8.h **** 			 *  \param[in] Address  Address of the endpoint whose interrupt flag should be tested.
 389:../../tmk_core/protocol/lufa/LUFA-git/LUFA/Drivers/USB/Core/AVR8/../AVR8/Endpoint_AVR8.h **** 			 *
 390:../../tmk_core/protocol/lufa/LUFA-git/LUFA/Drivers/USB/Core/AVR8/../AVR8/Endpoint_AVR8.h **** 			 *  \return Boolean \c true if the specified endpoint has interrupted, \c false otherwise.
 391:../../tmk_core/protocol/lufa/LUFA-git/LUFA/Drivers/USB/Core/AVR8/../AVR8/Endpoint_AVR8.h **** 			 */
 392:../../tmk_core/protocol/lufa/LUFA-git/LUFA/Drivers/USB/Core/AVR8/../AVR8/Endpoint_AVR8.h **** 			static inline bool Endpoint_HasEndpointInterrupted(const uint8_t Address) ATTR_WARN_UNUSED_RESUL
 393:../../tmk_core/protocol/lufa/LUFA-git/LUFA/Drivers/USB/Core/AVR8/../AVR8/Endpoint_AVR8.h **** 			static inline bool Endpoint_HasEndpointInterrupted(const uint8_t Address)
 394:../../tmk_core/protocol/lufa/LUFA-git/LUFA/Drivers/USB/Core/AVR8/../AVR8/Endpoint_AVR8.h **** 			{
 395:../../tmk_core/protocol/lufa/LUFA-git/LUFA/Drivers/USB/Core/AVR8/../AVR8/Endpoint_AVR8.h **** 				return ((Endpoint_GetEndpointInterrupts() & (1 << (Address & ENDPOINT_EPNUM_MASK))) ? true : fa
 396:../../tmk_core/protocol/lufa/LUFA-git/LUFA/Drivers/USB/Core/AVR8/../AVR8/Endpoint_AVR8.h **** 			}
 397:../../tmk_core/protocol/lufa/LUFA-git/LUFA/Drivers/USB/Core/AVR8/../AVR8/Endpoint_AVR8.h **** 
 398:../../tmk_core/protocol/lufa/LUFA-git/LUFA/Drivers/USB/Core/AVR8/../AVR8/Endpoint_AVR8.h **** 			/** Determines if the selected IN endpoint is ready for a new packet to be sent to the host.
 399:../../tmk_core/protocol/lufa/LUFA-git/LUFA/Drivers/USB/Core/AVR8/../AVR8/Endpoint_AVR8.h **** 			 *
 400:../../tmk_core/protocol/lufa/LUFA-git/LUFA/Drivers/USB/Core/AVR8/../AVR8/Endpoint_AVR8.h **** 			 *  \ingroup Group_EndpointPacketManagement_AVR8
 401:../../tmk_core/protocol/lufa/LUFA-git/LUFA/Drivers/USB/Core/AVR8/../AVR8/Endpoint_AVR8.h **** 			 *
 402:../../tmk_core/protocol/lufa/LUFA-git/LUFA/Drivers/USB/Core/AVR8/../AVR8/Endpoint_AVR8.h **** 			 *  \return Boolean \c true if the current endpoint is ready for an IN packet, \c false otherwis
 403:../../tmk_core/protocol/lufa/LUFA-git/LUFA/Drivers/USB/Core/AVR8/../AVR8/Endpoint_AVR8.h **** 			 */
 404:../../tmk_core/protocol/lufa/LUFA-git/LUFA/Drivers/USB/Core/AVR8/../AVR8/Endpoint_AVR8.h **** 			static inline bool Endpoint_IsINReady(void) ATTR_WARN_UNUSED_RESULT ATTR_ALWAYS_INLINE;
 405:../../tmk_core/protocol/lufa/LUFA-git/LUFA/Drivers/USB/Core/AVR8/../AVR8/Endpoint_AVR8.h **** 			static inline bool Endpoint_IsINReady(void)
 406:../../tmk_core/protocol/lufa/LUFA-git/LUFA/Drivers/USB/Core/AVR8/../AVR8/Endpoint_AVR8.h **** 			{
 407:../../tmk_core/protocol/lufa/LUFA-git/LUFA/Drivers/USB/Core/AVR8/../AVR8/Endpoint_AVR8.h **** 				return ((UEINTX & (1 << TXINI)) ? true : false);
 408:../../tmk_core/protocol/lufa/LUFA-git/LUFA/Drivers/USB/Core/AVR8/../AVR8/Endpoint_AVR8.h **** 			}
 409:../../tmk_core/protocol/lufa/LUFA-git/LUFA/Drivers/USB/Core/AVR8/../AVR8/Endpoint_AVR8.h **** 
 410:../../tmk_core/protocol/lufa/LUFA-git/LUFA/Drivers/USB/Core/AVR8/../AVR8/Endpoint_AVR8.h **** 			/** Determines if the selected OUT endpoint has received new packet from the host.
 411:../../tmk_core/protocol/lufa/LUFA-git/LUFA/Drivers/USB/Core/AVR8/../AVR8/Endpoint_AVR8.h **** 			 *
 412:../../tmk_core/protocol/lufa/LUFA-git/LUFA/Drivers/USB/Core/AVR8/../AVR8/Endpoint_AVR8.h **** 			 *  \ingroup Group_EndpointPacketManagement_AVR8
 413:../../tmk_core/protocol/lufa/LUFA-git/LUFA/Drivers/USB/Core/AVR8/../AVR8/Endpoint_AVR8.h **** 			 *
 414:../../tmk_core/protocol/lufa/LUFA-git/LUFA/Drivers/USB/Core/AVR8/../AVR8/Endpoint_AVR8.h **** 			 *  \return Boolean \c true if current endpoint is has received an OUT packet, \c false otherwis
 415:../../tmk_core/protocol/lufa/LUFA-git/LUFA/Drivers/USB/Core/AVR8/../AVR8/Endpoint_AVR8.h **** 			 */
 416:../../tmk_core/protocol/lufa/LUFA-git/LUFA/Drivers/USB/Core/AVR8/../AVR8/Endpoint_AVR8.h **** 			static inline bool Endpoint_IsOUTReceived(void) ATTR_WARN_UNUSED_RESULT ATTR_ALWAYS_INLINE;
 417:../../tmk_core/protocol/lufa/LUFA-git/LUFA/Drivers/USB/Core/AVR8/../AVR8/Endpoint_AVR8.h **** 			static inline bool Endpoint_IsOUTReceived(void)
 418:../../tmk_core/protocol/lufa/LUFA-git/LUFA/Drivers/USB/Core/AVR8/../AVR8/Endpoint_AVR8.h **** 			{
 419:../../tmk_core/protocol/lufa/LUFA-git/LUFA/Drivers/USB/Core/AVR8/../AVR8/Endpoint_AVR8.h **** 				return ((UEINTX & (1 << RXOUTI)) ? true : false);
 420:../../tmk_core/protocol/lufa/LUFA-git/LUFA/Drivers/USB/Core/AVR8/../AVR8/Endpoint_AVR8.h **** 			}
 421:../../tmk_core/protocol/lufa/LUFA-git/LUFA/Drivers/USB/Core/AVR8/../AVR8/Endpoint_AVR8.h **** 
 422:../../tmk_core/protocol/lufa/LUFA-git/LUFA/Drivers/USB/Core/AVR8/../AVR8/Endpoint_AVR8.h **** 			/** Determines if the current CONTROL type endpoint has received a SETUP packet.
 423:../../tmk_core/protocol/lufa/LUFA-git/LUFA/Drivers/USB/Core/AVR8/../AVR8/Endpoint_AVR8.h **** 			 *
 424:../../tmk_core/protocol/lufa/LUFA-git/LUFA/Drivers/USB/Core/AVR8/../AVR8/Endpoint_AVR8.h **** 			 *  \ingroup Group_EndpointPacketManagement_AVR8
 425:../../tmk_core/protocol/lufa/LUFA-git/LUFA/Drivers/USB/Core/AVR8/../AVR8/Endpoint_AVR8.h **** 			 *
 426:../../tmk_core/protocol/lufa/LUFA-git/LUFA/Drivers/USB/Core/AVR8/../AVR8/Endpoint_AVR8.h **** 			 *  \return Boolean \c true if the selected endpoint has received a SETUP packet, \c false other
 427:../../tmk_core/protocol/lufa/LUFA-git/LUFA/Drivers/USB/Core/AVR8/../AVR8/Endpoint_AVR8.h **** 			 */
 428:../../tmk_core/protocol/lufa/LUFA-git/LUFA/Drivers/USB/Core/AVR8/../AVR8/Endpoint_AVR8.h **** 			static inline bool Endpoint_IsSETUPReceived(void) ATTR_WARN_UNUSED_RESULT ATTR_ALWAYS_INLINE;
 429:../../tmk_core/protocol/lufa/LUFA-git/LUFA/Drivers/USB/Core/AVR8/../AVR8/Endpoint_AVR8.h **** 			static inline bool Endpoint_IsSETUPReceived(void)
 430:../../tmk_core/protocol/lufa/LUFA-git/LUFA/Drivers/USB/Core/AVR8/../AVR8/Endpoint_AVR8.h **** 			{
 431:../../tmk_core/protocol/lufa/LUFA-git/LUFA/Drivers/USB/Core/AVR8/../AVR8/Endpoint_AVR8.h **** 				return ((UEINTX & (1 << RXSTPI)) ? true : false);
 432:../../tmk_core/protocol/lufa/LUFA-git/LUFA/Drivers/USB/Core/AVR8/../AVR8/Endpoint_AVR8.h **** 			}
 433:../../tmk_core/protocol/lufa/LUFA-git/LUFA/Drivers/USB/Core/AVR8/../AVR8/Endpoint_AVR8.h **** 
 434:../../tmk_core/protocol/lufa/LUFA-git/LUFA/Drivers/USB/Core/AVR8/../AVR8/Endpoint_AVR8.h **** 			/** Clears a received SETUP packet on the currently selected CONTROL type endpoint, freeing up t
 435:../../tmk_core/protocol/lufa/LUFA-git/LUFA/Drivers/USB/Core/AVR8/../AVR8/Endpoint_AVR8.h **** 			 *  endpoint for the next packet.
 436:../../tmk_core/protocol/lufa/LUFA-git/LUFA/Drivers/USB/Core/AVR8/../AVR8/Endpoint_AVR8.h **** 			 *
 437:../../tmk_core/protocol/lufa/LUFA-git/LUFA/Drivers/USB/Core/AVR8/../AVR8/Endpoint_AVR8.h **** 			 *  \ingroup Group_EndpointPacketManagement_AVR8
 438:../../tmk_core/protocol/lufa/LUFA-git/LUFA/Drivers/USB/Core/AVR8/../AVR8/Endpoint_AVR8.h **** 			 *
 439:../../tmk_core/protocol/lufa/LUFA-git/LUFA/Drivers/USB/Core/AVR8/../AVR8/Endpoint_AVR8.h **** 			 *  \note This is not applicable for non CONTROL type endpoints.
 440:../../tmk_core/protocol/lufa/LUFA-git/LUFA/Drivers/USB/Core/AVR8/../AVR8/Endpoint_AVR8.h **** 			 */
 441:../../tmk_core/protocol/lufa/LUFA-git/LUFA/Drivers/USB/Core/AVR8/../AVR8/Endpoint_AVR8.h **** 			static inline void Endpoint_ClearSETUP(void) ATTR_ALWAYS_INLINE;
 442:../../tmk_core/protocol/lufa/LUFA-git/LUFA/Drivers/USB/Core/AVR8/../AVR8/Endpoint_AVR8.h **** 			static inline void Endpoint_ClearSETUP(void)
 443:../../tmk_core/protocol/lufa/LUFA-git/LUFA/Drivers/USB/Core/AVR8/../AVR8/Endpoint_AVR8.h **** 			{
 444:../../tmk_core/protocol/lufa/LUFA-git/LUFA/Drivers/USB/Core/AVR8/../AVR8/Endpoint_AVR8.h **** 				UEINTX &= ~(1 << RXSTPI);
 445:../../tmk_core/protocol/lufa/LUFA-git/LUFA/Drivers/USB/Core/AVR8/../AVR8/Endpoint_AVR8.h **** 			}
 446:../../tmk_core/protocol/lufa/LUFA-git/LUFA/Drivers/USB/Core/AVR8/../AVR8/Endpoint_AVR8.h **** 
 447:../../tmk_core/protocol/lufa/LUFA-git/LUFA/Drivers/USB/Core/AVR8/../AVR8/Endpoint_AVR8.h **** 			/** Sends an IN packet to the host on the currently selected endpoint, freeing up the endpoint f
 448:../../tmk_core/protocol/lufa/LUFA-git/LUFA/Drivers/USB/Core/AVR8/../AVR8/Endpoint_AVR8.h **** 			 *  next packet and switching to the alternative endpoint bank if double banked.
 449:../../tmk_core/protocol/lufa/LUFA-git/LUFA/Drivers/USB/Core/AVR8/../AVR8/Endpoint_AVR8.h **** 			 *
 450:../../tmk_core/protocol/lufa/LUFA-git/LUFA/Drivers/USB/Core/AVR8/../AVR8/Endpoint_AVR8.h **** 			 *  \ingroup Group_EndpointPacketManagement_AVR8
 451:../../tmk_core/protocol/lufa/LUFA-git/LUFA/Drivers/USB/Core/AVR8/../AVR8/Endpoint_AVR8.h **** 			 */
 452:../../tmk_core/protocol/lufa/LUFA-git/LUFA/Drivers/USB/Core/AVR8/../AVR8/Endpoint_AVR8.h **** 			static inline void Endpoint_ClearIN(void) ATTR_ALWAYS_INLINE;
 453:../../tmk_core/protocol/lufa/LUFA-git/LUFA/Drivers/USB/Core/AVR8/../AVR8/Endpoint_AVR8.h **** 			static inline void Endpoint_ClearIN(void)
 454:../../tmk_core/protocol/lufa/LUFA-git/LUFA/Drivers/USB/Core/AVR8/../AVR8/Endpoint_AVR8.h **** 			{
 455:../../tmk_core/protocol/lufa/LUFA-git/LUFA/Drivers/USB/Core/AVR8/../AVR8/Endpoint_AVR8.h **** 				#if !defined(CONTROL_ONLY_DEVICE)
 456:../../tmk_core/protocol/lufa/LUFA-git/LUFA/Drivers/USB/Core/AVR8/../AVR8/Endpoint_AVR8.h **** 					UEINTX &= ~((1 << TXINI) | (1 << FIFOCON));
 457:../../tmk_core/protocol/lufa/LUFA-git/LUFA/Drivers/USB/Core/AVR8/../AVR8/Endpoint_AVR8.h **** 				#else
 458:../../tmk_core/protocol/lufa/LUFA-git/LUFA/Drivers/USB/Core/AVR8/../AVR8/Endpoint_AVR8.h **** 					UEINTX &= ~(1 << TXINI);
 459:../../tmk_core/protocol/lufa/LUFA-git/LUFA/Drivers/USB/Core/AVR8/../AVR8/Endpoint_AVR8.h **** 				#endif
 460:../../tmk_core/protocol/lufa/LUFA-git/LUFA/Drivers/USB/Core/AVR8/../AVR8/Endpoint_AVR8.h **** 			}
 461:../../tmk_core/protocol/lufa/LUFA-git/LUFA/Drivers/USB/Core/AVR8/../AVR8/Endpoint_AVR8.h **** 
 462:../../tmk_core/protocol/lufa/LUFA-git/LUFA/Drivers/USB/Core/AVR8/../AVR8/Endpoint_AVR8.h **** 			/** Acknowledges an OUT packet to the host on the currently selected endpoint, freeing up the en
 463:../../tmk_core/protocol/lufa/LUFA-git/LUFA/Drivers/USB/Core/AVR8/../AVR8/Endpoint_AVR8.h **** 			 *  for the next packet and switching to the alternative endpoint bank if double banked.
 464:../../tmk_core/protocol/lufa/LUFA-git/LUFA/Drivers/USB/Core/AVR8/../AVR8/Endpoint_AVR8.h **** 			 *
 465:../../tmk_core/protocol/lufa/LUFA-git/LUFA/Drivers/USB/Core/AVR8/../AVR8/Endpoint_AVR8.h **** 			 *  \ingroup Group_EndpointPacketManagement_AVR8
 466:../../tmk_core/protocol/lufa/LUFA-git/LUFA/Drivers/USB/Core/AVR8/../AVR8/Endpoint_AVR8.h **** 			 */
 467:../../tmk_core/protocol/lufa/LUFA-git/LUFA/Drivers/USB/Core/AVR8/../AVR8/Endpoint_AVR8.h **** 			static inline void Endpoint_ClearOUT(void) ATTR_ALWAYS_INLINE;
 468:../../tmk_core/protocol/lufa/LUFA-git/LUFA/Drivers/USB/Core/AVR8/../AVR8/Endpoint_AVR8.h **** 			static inline void Endpoint_ClearOUT(void)
 469:../../tmk_core/protocol/lufa/LUFA-git/LUFA/Drivers/USB/Core/AVR8/../AVR8/Endpoint_AVR8.h **** 			{
 470:../../tmk_core/protocol/lufa/LUFA-git/LUFA/Drivers/USB/Core/AVR8/../AVR8/Endpoint_AVR8.h **** 				#if !defined(CONTROL_ONLY_DEVICE)
 471:../../tmk_core/protocol/lufa/LUFA-git/LUFA/Drivers/USB/Core/AVR8/../AVR8/Endpoint_AVR8.h **** 					UEINTX &= ~((1 << RXOUTI) | (1 << FIFOCON));
 472:../../tmk_core/protocol/lufa/LUFA-git/LUFA/Drivers/USB/Core/AVR8/../AVR8/Endpoint_AVR8.h **** 				#else
 473:../../tmk_core/protocol/lufa/LUFA-git/LUFA/Drivers/USB/Core/AVR8/../AVR8/Endpoint_AVR8.h **** 					UEINTX &= ~(1 << RXOUTI);
 474:../../tmk_core/protocol/lufa/LUFA-git/LUFA/Drivers/USB/Core/AVR8/../AVR8/Endpoint_AVR8.h **** 				#endif
 475:../../tmk_core/protocol/lufa/LUFA-git/LUFA/Drivers/USB/Core/AVR8/../AVR8/Endpoint_AVR8.h **** 			}
 476:../../tmk_core/protocol/lufa/LUFA-git/LUFA/Drivers/USB/Core/AVR8/../AVR8/Endpoint_AVR8.h **** 
 477:../../tmk_core/protocol/lufa/LUFA-git/LUFA/Drivers/USB/Core/AVR8/../AVR8/Endpoint_AVR8.h **** 			/** Stalls the current endpoint, indicating to the host that a logical problem occurred with the
 478:../../tmk_core/protocol/lufa/LUFA-git/LUFA/Drivers/USB/Core/AVR8/../AVR8/Endpoint_AVR8.h **** 			 *  indicated endpoint and that the current transfer sequence should be aborted. This provides a
 479:../../tmk_core/protocol/lufa/LUFA-git/LUFA/Drivers/USB/Core/AVR8/../AVR8/Endpoint_AVR8.h **** 			 *  way for devices to indicate invalid commands to the host so that the current transfer can be
 480:../../tmk_core/protocol/lufa/LUFA-git/LUFA/Drivers/USB/Core/AVR8/../AVR8/Endpoint_AVR8.h **** 			 *  aborted and the host can begin its own recovery sequence.
 481:../../tmk_core/protocol/lufa/LUFA-git/LUFA/Drivers/USB/Core/AVR8/../AVR8/Endpoint_AVR8.h **** 			 *
 482:../../tmk_core/protocol/lufa/LUFA-git/LUFA/Drivers/USB/Core/AVR8/../AVR8/Endpoint_AVR8.h **** 			 *  The currently selected endpoint remains stalled until either the \ref Endpoint_ClearStall() 
 483:../../tmk_core/protocol/lufa/LUFA-git/LUFA/Drivers/USB/Core/AVR8/../AVR8/Endpoint_AVR8.h **** 			 *  is called, or the host issues a CLEAR FEATURE request to the device for the currently select
 484:../../tmk_core/protocol/lufa/LUFA-git/LUFA/Drivers/USB/Core/AVR8/../AVR8/Endpoint_AVR8.h **** 			 *  endpoint.
 485:../../tmk_core/protocol/lufa/LUFA-git/LUFA/Drivers/USB/Core/AVR8/../AVR8/Endpoint_AVR8.h **** 			 *
 486:../../tmk_core/protocol/lufa/LUFA-git/LUFA/Drivers/USB/Core/AVR8/../AVR8/Endpoint_AVR8.h **** 			 *  \ingroup Group_EndpointPacketManagement_AVR8
 487:../../tmk_core/protocol/lufa/LUFA-git/LUFA/Drivers/USB/Core/AVR8/../AVR8/Endpoint_AVR8.h **** 			 */
 488:../../tmk_core/protocol/lufa/LUFA-git/LUFA/Drivers/USB/Core/AVR8/../AVR8/Endpoint_AVR8.h **** 			static inline void Endpoint_StallTransaction(void) ATTR_ALWAYS_INLINE;
 489:../../tmk_core/protocol/lufa/LUFA-git/LUFA/Drivers/USB/Core/AVR8/../AVR8/Endpoint_AVR8.h **** 			static inline void Endpoint_StallTransaction(void)
 490:../../tmk_core/protocol/lufa/LUFA-git/LUFA/Drivers/USB/Core/AVR8/../AVR8/Endpoint_AVR8.h **** 			{
 491:../../tmk_core/protocol/lufa/LUFA-git/LUFA/Drivers/USB/Core/AVR8/../AVR8/Endpoint_AVR8.h **** 				UECONX |= (1 << STALLRQ);
 492:../../tmk_core/protocol/lufa/LUFA-git/LUFA/Drivers/USB/Core/AVR8/../AVR8/Endpoint_AVR8.h **** 			}
 493:../../tmk_core/protocol/lufa/LUFA-git/LUFA/Drivers/USB/Core/AVR8/../AVR8/Endpoint_AVR8.h **** 
 494:../../tmk_core/protocol/lufa/LUFA-git/LUFA/Drivers/USB/Core/AVR8/../AVR8/Endpoint_AVR8.h **** 			/** Clears the STALL condition on the currently selected endpoint.
 495:../../tmk_core/protocol/lufa/LUFA-git/LUFA/Drivers/USB/Core/AVR8/../AVR8/Endpoint_AVR8.h **** 			 *
 496:../../tmk_core/protocol/lufa/LUFA-git/LUFA/Drivers/USB/Core/AVR8/../AVR8/Endpoint_AVR8.h **** 			 *  \ingroup Group_EndpointPacketManagement_AVR8
 497:../../tmk_core/protocol/lufa/LUFA-git/LUFA/Drivers/USB/Core/AVR8/../AVR8/Endpoint_AVR8.h **** 			 */
 498:../../tmk_core/protocol/lufa/LUFA-git/LUFA/Drivers/USB/Core/AVR8/../AVR8/Endpoint_AVR8.h **** 			static inline void Endpoint_ClearStall(void) ATTR_ALWAYS_INLINE;
 499:../../tmk_core/protocol/lufa/LUFA-git/LUFA/Drivers/USB/Core/AVR8/../AVR8/Endpoint_AVR8.h **** 			static inline void Endpoint_ClearStall(void)
 500:../../tmk_core/protocol/lufa/LUFA-git/LUFA/Drivers/USB/Core/AVR8/../AVR8/Endpoint_AVR8.h **** 			{
 501:../../tmk_core/protocol/lufa/LUFA-git/LUFA/Drivers/USB/Core/AVR8/../AVR8/Endpoint_AVR8.h **** 				UECONX |= (1 << STALLRQC);
 502:../../tmk_core/protocol/lufa/LUFA-git/LUFA/Drivers/USB/Core/AVR8/../AVR8/Endpoint_AVR8.h **** 			}
 503:../../tmk_core/protocol/lufa/LUFA-git/LUFA/Drivers/USB/Core/AVR8/../AVR8/Endpoint_AVR8.h **** 
 504:../../tmk_core/protocol/lufa/LUFA-git/LUFA/Drivers/USB/Core/AVR8/../AVR8/Endpoint_AVR8.h **** 			/** Determines if the currently selected endpoint is stalled, \c false otherwise.
 505:../../tmk_core/protocol/lufa/LUFA-git/LUFA/Drivers/USB/Core/AVR8/../AVR8/Endpoint_AVR8.h **** 			 *
 506:../../tmk_core/protocol/lufa/LUFA-git/LUFA/Drivers/USB/Core/AVR8/../AVR8/Endpoint_AVR8.h **** 			 *  \ingroup Group_EndpointPacketManagement_AVR8
 507:../../tmk_core/protocol/lufa/LUFA-git/LUFA/Drivers/USB/Core/AVR8/../AVR8/Endpoint_AVR8.h **** 			 *
 508:../../tmk_core/protocol/lufa/LUFA-git/LUFA/Drivers/USB/Core/AVR8/../AVR8/Endpoint_AVR8.h **** 			 *  \return Boolean \c true if the currently selected endpoint is stalled, \c false otherwise.
 509:../../tmk_core/protocol/lufa/LUFA-git/LUFA/Drivers/USB/Core/AVR8/../AVR8/Endpoint_AVR8.h **** 			 */
 510:../../tmk_core/protocol/lufa/LUFA-git/LUFA/Drivers/USB/Core/AVR8/../AVR8/Endpoint_AVR8.h **** 			static inline bool Endpoint_IsStalled(void) ATTR_WARN_UNUSED_RESULT ATTR_ALWAYS_INLINE;
 511:../../tmk_core/protocol/lufa/LUFA-git/LUFA/Drivers/USB/Core/AVR8/../AVR8/Endpoint_AVR8.h **** 			static inline bool Endpoint_IsStalled(void)
 512:../../tmk_core/protocol/lufa/LUFA-git/LUFA/Drivers/USB/Core/AVR8/../AVR8/Endpoint_AVR8.h **** 			{
 513:../../tmk_core/protocol/lufa/LUFA-git/LUFA/Drivers/USB/Core/AVR8/../AVR8/Endpoint_AVR8.h **** 				return ((UECONX & (1 << STALLRQ)) ? true : false);
 514:../../tmk_core/protocol/lufa/LUFA-git/LUFA/Drivers/USB/Core/AVR8/../AVR8/Endpoint_AVR8.h **** 			}
 515:../../tmk_core/protocol/lufa/LUFA-git/LUFA/Drivers/USB/Core/AVR8/../AVR8/Endpoint_AVR8.h **** 
 516:../../tmk_core/protocol/lufa/LUFA-git/LUFA/Drivers/USB/Core/AVR8/../AVR8/Endpoint_AVR8.h **** 			/** Resets the data toggle of the currently selected endpoint. */
 517:../../tmk_core/protocol/lufa/LUFA-git/LUFA/Drivers/USB/Core/AVR8/../AVR8/Endpoint_AVR8.h **** 			static inline void Endpoint_ResetDataToggle(void) ATTR_ALWAYS_INLINE;
 518:../../tmk_core/protocol/lufa/LUFA-git/LUFA/Drivers/USB/Core/AVR8/../AVR8/Endpoint_AVR8.h **** 			static inline void Endpoint_ResetDataToggle(void)
 519:../../tmk_core/protocol/lufa/LUFA-git/LUFA/Drivers/USB/Core/AVR8/../AVR8/Endpoint_AVR8.h **** 			{
 520:../../tmk_core/protocol/lufa/LUFA-git/LUFA/Drivers/USB/Core/AVR8/../AVR8/Endpoint_AVR8.h **** 				UECONX |= (1 << RSTDT);
 521:../../tmk_core/protocol/lufa/LUFA-git/LUFA/Drivers/USB/Core/AVR8/../AVR8/Endpoint_AVR8.h **** 			}
 522:../../tmk_core/protocol/lufa/LUFA-git/LUFA/Drivers/USB/Core/AVR8/../AVR8/Endpoint_AVR8.h **** 
 523:../../tmk_core/protocol/lufa/LUFA-git/LUFA/Drivers/USB/Core/AVR8/../AVR8/Endpoint_AVR8.h **** 			/** Sets the direction of the currently selected endpoint.
 524:../../tmk_core/protocol/lufa/LUFA-git/LUFA/Drivers/USB/Core/AVR8/../AVR8/Endpoint_AVR8.h **** 			 *
 525:../../tmk_core/protocol/lufa/LUFA-git/LUFA/Drivers/USB/Core/AVR8/../AVR8/Endpoint_AVR8.h **** 			 *  \param[in] DirectionMask  New endpoint direction, as a \c ENDPOINT_DIR_* mask.
 526:../../tmk_core/protocol/lufa/LUFA-git/LUFA/Drivers/USB/Core/AVR8/../AVR8/Endpoint_AVR8.h **** 			 */
 527:../../tmk_core/protocol/lufa/LUFA-git/LUFA/Drivers/USB/Core/AVR8/../AVR8/Endpoint_AVR8.h **** 			static inline void Endpoint_SetEndpointDirection(const uint8_t DirectionMask) ATTR_ALWAYS_INLINE
 528:../../tmk_core/protocol/lufa/LUFA-git/LUFA/Drivers/USB/Core/AVR8/../AVR8/Endpoint_AVR8.h **** 			static inline void Endpoint_SetEndpointDirection(const uint8_t DirectionMask)
 529:../../tmk_core/protocol/lufa/LUFA-git/LUFA/Drivers/USB/Core/AVR8/../AVR8/Endpoint_AVR8.h **** 			{
 530:../../tmk_core/protocol/lufa/LUFA-git/LUFA/Drivers/USB/Core/AVR8/../AVR8/Endpoint_AVR8.h **** 				UECFG0X = ((UECFG0X & ~(1 << EPDIR)) | (DirectionMask ? (1 << EPDIR) : 0));
 531:../../tmk_core/protocol/lufa/LUFA-git/LUFA/Drivers/USB/Core/AVR8/../AVR8/Endpoint_AVR8.h **** 			}
 532:../../tmk_core/protocol/lufa/LUFA-git/LUFA/Drivers/USB/Core/AVR8/../AVR8/Endpoint_AVR8.h **** 
 533:../../tmk_core/protocol/lufa/LUFA-git/LUFA/Drivers/USB/Core/AVR8/../AVR8/Endpoint_AVR8.h **** 			/** Reads one byte from the currently selected endpoint's bank, for OUT direction endpoints.
 534:../../tmk_core/protocol/lufa/LUFA-git/LUFA/Drivers/USB/Core/AVR8/../AVR8/Endpoint_AVR8.h **** 			 *
 535:../../tmk_core/protocol/lufa/LUFA-git/LUFA/Drivers/USB/Core/AVR8/../AVR8/Endpoint_AVR8.h **** 			 *  \ingroup Group_EndpointPrimitiveRW_AVR8
 536:../../tmk_core/protocol/lufa/LUFA-git/LUFA/Drivers/USB/Core/AVR8/../AVR8/Endpoint_AVR8.h **** 			 *
 537:../../tmk_core/protocol/lufa/LUFA-git/LUFA/Drivers/USB/Core/AVR8/../AVR8/Endpoint_AVR8.h **** 			 *  \return Next byte in the currently selected endpoint's FIFO buffer.
 538:../../tmk_core/protocol/lufa/LUFA-git/LUFA/Drivers/USB/Core/AVR8/../AVR8/Endpoint_AVR8.h **** 			 */
 539:../../tmk_core/protocol/lufa/LUFA-git/LUFA/Drivers/USB/Core/AVR8/../AVR8/Endpoint_AVR8.h **** 			static inline uint8_t Endpoint_Read_8(void) ATTR_WARN_UNUSED_RESULT ATTR_ALWAYS_INLINE;
 540:../../tmk_core/protocol/lufa/LUFA-git/LUFA/Drivers/USB/Core/AVR8/../AVR8/Endpoint_AVR8.h **** 			static inline uint8_t Endpoint_Read_8(void)
 541:../../tmk_core/protocol/lufa/LUFA-git/LUFA/Drivers/USB/Core/AVR8/../AVR8/Endpoint_AVR8.h **** 			{
 542:../../tmk_core/protocol/lufa/LUFA-git/LUFA/Drivers/USB/Core/AVR8/../AVR8/Endpoint_AVR8.h **** 				return UEDATX;
 543:../../tmk_core/protocol/lufa/LUFA-git/LUFA/Drivers/USB/Core/AVR8/../AVR8/Endpoint_AVR8.h **** 			}
 544:../../tmk_core/protocol/lufa/LUFA-git/LUFA/Drivers/USB/Core/AVR8/../AVR8/Endpoint_AVR8.h **** 
 545:../../tmk_core/protocol/lufa/LUFA-git/LUFA/Drivers/USB/Core/AVR8/../AVR8/Endpoint_AVR8.h **** 			/** Writes one byte to the currently selected endpoint's bank, for IN direction endpoints.
 546:../../tmk_core/protocol/lufa/LUFA-git/LUFA/Drivers/USB/Core/AVR8/../AVR8/Endpoint_AVR8.h **** 			 *
 547:../../tmk_core/protocol/lufa/LUFA-git/LUFA/Drivers/USB/Core/AVR8/../AVR8/Endpoint_AVR8.h **** 			 *  \ingroup Group_EndpointPrimitiveRW_AVR8
 548:../../tmk_core/protocol/lufa/LUFA-git/LUFA/Drivers/USB/Core/AVR8/../AVR8/Endpoint_AVR8.h **** 			 *
 549:../../tmk_core/protocol/lufa/LUFA-git/LUFA/Drivers/USB/Core/AVR8/../AVR8/Endpoint_AVR8.h **** 			 *  \param[in] Data  Data to write into the the currently selected endpoint's FIFO buffer.
 550:../../tmk_core/protocol/lufa/LUFA-git/LUFA/Drivers/USB/Core/AVR8/../AVR8/Endpoint_AVR8.h **** 			 */
 551:../../tmk_core/protocol/lufa/LUFA-git/LUFA/Drivers/USB/Core/AVR8/../AVR8/Endpoint_AVR8.h **** 			static inline void Endpoint_Write_8(const uint8_t Data) ATTR_ALWAYS_INLINE;
 552:../../tmk_core/protocol/lufa/LUFA-git/LUFA/Drivers/USB/Core/AVR8/../AVR8/Endpoint_AVR8.h **** 			static inline void Endpoint_Write_8(const uint8_t Data)
 553:../../tmk_core/protocol/lufa/LUFA-git/LUFA/Drivers/USB/Core/AVR8/../AVR8/Endpoint_AVR8.h **** 			{
 554:../../tmk_core/protocol/lufa/LUFA-git/LUFA/Drivers/USB/Core/AVR8/../AVR8/Endpoint_AVR8.h **** 				UEDATX = Data;
 138               		.loc 2 554 0
 139 005a 8093 F100 		sts 241,r24
 140               	.LVL8:
 141               	.LBE183:
 142               	.LBE182:
 143               	.LBB184:
 144               	.LBB185:
 360:../../tmk_core/protocol/lufa/LUFA-git/LUFA/Drivers/USB/Core/AVR8/../AVR8/Endpoint_AVR8.h **** 			}
 145               		.loc 2 360 0
 146 005e 8091 E800 		lds r24,232
 147               	.LVL9:
 148               	.LBE185:
 149               	.LBE184:
 561:../../tmk_core/protocol/lufa/lufa.c ****         if (USB_DeviceState != DEVICE_STATE_Configured) {
 562:../../tmk_core/protocol/lufa/lufa.c ****             goto ERROR_EXIT;
 563:../../tmk_core/protocol/lufa/lufa.c ****         }
 564:../../tmk_core/protocol/lufa/lufa.c ****         if (Endpoint_IsStalled()) {
 565:../../tmk_core/protocol/lufa/lufa.c ****             goto ERROR_EXIT;
 566:../../tmk_core/protocol/lufa/lufa.c ****         }
 567:../../tmk_core/protocol/lufa/lufa.c ****         if (!(timeout--)) {
 568:../../tmk_core/protocol/lufa/lufa.c ****             timeouted = true;
 569:../../tmk_core/protocol/lufa/lufa.c ****             goto ERROR_EXIT;
 570:../../tmk_core/protocol/lufa/lufa.c ****         }
 571:../../tmk_core/protocol/lufa/lufa.c ****         _delay_ms(1);
 572:../../tmk_core/protocol/lufa/lufa.c ****     }
 573:../../tmk_core/protocol/lufa/lufa.c **** 
 574:../../tmk_core/protocol/lufa/lufa.c ****     Endpoint_Write_8(c);
 575:../../tmk_core/protocol/lufa/lufa.c **** 
 576:../../tmk_core/protocol/lufa/lufa.c ****     // send when bank is full
 577:../../tmk_core/protocol/lufa/lufa.c ****     if (!Endpoint_IsReadWriteAllowed()) {
 150               		.loc 1 577 0
 151 0062 85FD      		sbrc r24,5
 152 0064 00C0      		rjmp .L11
 153               	.L12:
 154               	.LBB186:
 155               	.LBB187:
 407:../../tmk_core/protocol/lufa/LUFA-git/LUFA/Drivers/USB/Core/AVR8/../AVR8/Endpoint_AVR8.h **** 			}
 156               		.loc 2 407 0 discriminator 1
 157 0066 8091 E800 		lds r24,232
 158               	.LBE187:
 159               	.LBE186:
 578:../../tmk_core/protocol/lufa/lufa.c ****         while (!(Endpoint_IsINReady()));
 160               		.loc 1 578 0 discriminator 1
 161 006a 80FF      		sbrs r24,0
 162 006c 00C0      		rjmp .L12
 163               	.LBB188:
 164               	.LBB189:
 456:../../tmk_core/protocol/lufa/LUFA-git/LUFA/Drivers/USB/Core/AVR8/../AVR8/Endpoint_AVR8.h **** 				#else
 165               		.loc 2 456 0
 166 006e 8091 E800 		lds r24,232
 167 0072 8E77      		andi r24,lo8(126)
 168 0074 8093 E800 		sts 232,r24
 169               	.LVL10:
 170               	.L13:
 171               	.LBE189:
 172               	.LBE188:
 173               	.LBB190:
 174               	.LBB191:
 270:../../tmk_core/protocol/lufa/LUFA-git/LUFA/Drivers/USB/Core/AVR8/../AVR8/Endpoint_AVR8.h **** 				#endif
 175               		.loc 2 270 0
 176 0078 9F70      		andi r25,lo8(15)
 177               	.LVL11:
 178 007a 9093 E900 		sts 233,r25
 179               	.LBE191:
 180               	.LBE190:
 579:../../tmk_core/protocol/lufa/lufa.c ****         Endpoint_ClearIN();
 580:../../tmk_core/protocol/lufa/lufa.c ****     } else {
 581:../../tmk_core/protocol/lufa/lufa.c ****         CONSOLE_FLUSH_SET(true);
 582:../../tmk_core/protocol/lufa/lufa.c ****     }
 583:../../tmk_core/protocol/lufa/lufa.c **** 
 584:../../tmk_core/protocol/lufa/lufa.c ****     Endpoint_SelectEndpoint(ep);
 585:../../tmk_core/protocol/lufa/lufa.c ****     return 0;
 181               		.loc 1 585 0
 182 007e 80E0      		ldi r24,0
 183 0080 0895      		ret
 184               	.LVL12:
 185               	.L15:
 186               	.LBB192:
 187               	.LBB171:
 188               	.LBB170:
 189               	.LBB169:
 240:../../tmk_core/protocol/lufa/LUFA-git/LUFA/Drivers/USB/Core/AVR8/../AVR8/Endpoint_AVR8.h **** 			}
 190               		.loc 2 240 0
 191 0082 90E8      		ldi r25,lo8(-128)
 192 0084 00C0      		rjmp .L4
 193               	.LVL13:
 194               	.L10:
 195               	.LBE169:
 196               	.LBE170:
 197               	.LBE171:
 198               	.LBE192:
 561:../../tmk_core/protocol/lufa/lufa.c ****             goto ERROR_EXIT;
 199               		.loc 1 561 0
 200 0086 3091 0000 		lds r19,USB_DeviceState
 201 008a 3430      		cpi r19,lo8(4)
 202 008c 01F4      		brne .L9
 203               	.LBB193:
 204               	.LBB194:
 513:../../tmk_core/protocol/lufa/LUFA-git/LUFA/Drivers/USB/Core/AVR8/../AVR8/Endpoint_AVR8.h **** 			}
 205               		.loc 2 513 0
 206 008e 3091 EB00 		lds r19,235
 207               	.LBE194:
 208               	.LBE193:
 564:../../tmk_core/protocol/lufa/lufa.c ****             goto ERROR_EXIT;
 209               		.loc 1 564 0
 210 0092 35FD      		sbrc r19,5
 211 0094 00C0      		rjmp .L9
 212               	.LVL14:
 213 0096 2150      		subi r18,lo8(-(-1))
 214               	.LVL15:
 567:../../tmk_core/protocol/lufa/lufa.c ****             timeouted = true;
 215               		.loc 1 567 0
 216 0098 01F4      		brne .L8
 568:../../tmk_core/protocol/lufa/lufa.c ****             goto ERROR_EXIT;
 217               		.loc 1 568 0
 218 009a 81E0      		ldi r24,lo8(1)
 219               	.LVL16:
 220 009c 8093 0000 		sts timeouted.4898,r24
 221               	.LVL17:
 222               	.L9:
 223               	.LBB195:
 224               	.LBB196:
 270:../../tmk_core/protocol/lufa/LUFA-git/LUFA/Drivers/USB/Core/AVR8/../AVR8/Endpoint_AVR8.h **** 				#endif
 225               		.loc 2 270 0
 226 00a0 9F70      		andi r25,lo8(15)
 227               	.LVL18:
 228 00a2 9093 E900 		sts 233,r25
 229               	.L14:
 230               	.LBE196:
 231               	.LBE195:
 545:../../tmk_core/protocol/lufa/lufa.c **** 
 232               		.loc 1 545 0
 233 00a6 8FEF      		ldi r24,lo8(-1)
 234               	/* epilogue start */
 586:../../tmk_core/protocol/lufa/lufa.c **** ERROR_EXIT:
 587:../../tmk_core/protocol/lufa/lufa.c ****     Endpoint_SelectEndpoint(ep);
 588:../../tmk_core/protocol/lufa/lufa.c ****     return -1;
 589:../../tmk_core/protocol/lufa/lufa.c **** }
 235               		.loc 1 589 0
 236 00a8 0895      		ret
 237               	.LVL19:
 238               	.L8:
 239               	.LBB197:
 240               	.LBB198:
 241               		.file 3 "c:\\avr-gcc-7.2.0-x64-mingw\\avr\\include\\util\\delay.h"
   1:c:\avr-gcc-7.2.0-x64-mingw\avr\include\util\delay.h **** /* Copyright (c) 2002, Marek Michalkiewicz
   2:c:\avr-gcc-7.2.0-x64-mingw\avr\include\util\delay.h ****    Copyright (c) 2004,2005,2007 Joerg Wunsch
   3:c:\avr-gcc-7.2.0-x64-mingw\avr\include\util\delay.h ****    Copyright (c) 2007  Florin-Viorel Petrov
   4:c:\avr-gcc-7.2.0-x64-mingw\avr\include\util\delay.h ****    All rights reserved.
   5:c:\avr-gcc-7.2.0-x64-mingw\avr\include\util\delay.h **** 
   6:c:\avr-gcc-7.2.0-x64-mingw\avr\include\util\delay.h ****    Redistribution and use in source and binary forms, with or without
   7:c:\avr-gcc-7.2.0-x64-mingw\avr\include\util\delay.h ****    modification, are permitted provided that the following conditions are met:
   8:c:\avr-gcc-7.2.0-x64-mingw\avr\include\util\delay.h **** 
   9:c:\avr-gcc-7.2.0-x64-mingw\avr\include\util\delay.h ****    * Redistributions of source code must retain the above copyright
  10:c:\avr-gcc-7.2.0-x64-mingw\avr\include\util\delay.h ****      notice, this list of conditions and the following disclaimer.
  11:c:\avr-gcc-7.2.0-x64-mingw\avr\include\util\delay.h **** 
  12:c:\avr-gcc-7.2.0-x64-mingw\avr\include\util\delay.h ****    * Redistributions in binary form must reproduce the above copyright
  13:c:\avr-gcc-7.2.0-x64-mingw\avr\include\util\delay.h ****      notice, this list of conditions and the following disclaimer in
  14:c:\avr-gcc-7.2.0-x64-mingw\avr\include\util\delay.h ****      the documentation and/or other materials provided with the
  15:c:\avr-gcc-7.2.0-x64-mingw\avr\include\util\delay.h ****      distribution.
  16:c:\avr-gcc-7.2.0-x64-mingw\avr\include\util\delay.h **** 
  17:c:\avr-gcc-7.2.0-x64-mingw\avr\include\util\delay.h ****    * Neither the name of the copyright holders nor the names of
  18:c:\avr-gcc-7.2.0-x64-mingw\avr\include\util\delay.h ****      contributors may be used to endorse or promote products derived
  19:c:\avr-gcc-7.2.0-x64-mingw\avr\include\util\delay.h ****      from this software without specific prior written permission.
  20:c:\avr-gcc-7.2.0-x64-mingw\avr\include\util\delay.h **** 
  21:c:\avr-gcc-7.2.0-x64-mingw\avr\include\util\delay.h ****   THIS SOFTWARE IS PROVIDED BY THE COPYRIGHT HOLDERS AND CONTRIBUTORS "AS IS"
  22:c:\avr-gcc-7.2.0-x64-mingw\avr\include\util\delay.h ****   AND ANY EXPRESS OR IMPLIED WARRANTIES, INCLUDING, BUT NOT LIMITED TO, THE
  23:c:\avr-gcc-7.2.0-x64-mingw\avr\include\util\delay.h ****   IMPLIED WARRANTIES OF MERCHANTABILITY AND FITNESS FOR A PARTICULAR PURPOSE
  24:c:\avr-gcc-7.2.0-x64-mingw\avr\include\util\delay.h ****   ARE DISCLAIMED. IN NO EVENT SHALL THE COPYRIGHT OWNER OR CONTRIBUTORS BE
  25:c:\avr-gcc-7.2.0-x64-mingw\avr\include\util\delay.h ****   LIABLE FOR ANY DIRECT, INDIRECT, INCIDENTAL, SPECIAL, EXEMPLARY, OR
  26:c:\avr-gcc-7.2.0-x64-mingw\avr\include\util\delay.h ****   CONSEQUENTIAL DAMAGES (INCLUDING, BUT NOT LIMITED TO, PROCUREMENT OF
  27:c:\avr-gcc-7.2.0-x64-mingw\avr\include\util\delay.h ****   SUBSTITUTE GOODS OR SERVICES; LOSS OF USE, DATA, OR PROFITS; OR BUSINESS
  28:c:\avr-gcc-7.2.0-x64-mingw\avr\include\util\delay.h ****   INTERRUPTION) HOWEVER CAUSED AND ON ANY THEORY OF LIABILITY, WHETHER IN
  29:c:\avr-gcc-7.2.0-x64-mingw\avr\include\util\delay.h ****   CONTRACT, STRICT LIABILITY, OR TORT (INCLUDING NEGLIGENCE OR OTHERWISE)
  30:c:\avr-gcc-7.2.0-x64-mingw\avr\include\util\delay.h ****   ARISING IN ANY WAY OUT OF THE USE OF THIS SOFTWARE, EVEN IF ADVISED OF THE
  31:c:\avr-gcc-7.2.0-x64-mingw\avr\include\util\delay.h ****   POSSIBILITY OF SUCH DAMAGE. */
  32:c:\avr-gcc-7.2.0-x64-mingw\avr\include\util\delay.h **** 
  33:c:\avr-gcc-7.2.0-x64-mingw\avr\include\util\delay.h **** /* $Id: delay.h.in 2506 2016-02-08 10:05:45Z joerg_wunsch $ */
  34:c:\avr-gcc-7.2.0-x64-mingw\avr\include\util\delay.h **** 
  35:c:\avr-gcc-7.2.0-x64-mingw\avr\include\util\delay.h **** #ifndef _UTIL_DELAY_H_
  36:c:\avr-gcc-7.2.0-x64-mingw\avr\include\util\delay.h **** #define _UTIL_DELAY_H_ 1
  37:c:\avr-gcc-7.2.0-x64-mingw\avr\include\util\delay.h **** 
  38:c:\avr-gcc-7.2.0-x64-mingw\avr\include\util\delay.h **** #ifndef __DOXYGEN__
  39:c:\avr-gcc-7.2.0-x64-mingw\avr\include\util\delay.h **** #  ifndef __HAS_DELAY_CYCLES
  40:c:\avr-gcc-7.2.0-x64-mingw\avr\include\util\delay.h **** #    define __HAS_DELAY_CYCLES 1
  41:c:\avr-gcc-7.2.0-x64-mingw\avr\include\util\delay.h **** #  endif
  42:c:\avr-gcc-7.2.0-x64-mingw\avr\include\util\delay.h **** #endif  /* __DOXYGEN__ */
  43:c:\avr-gcc-7.2.0-x64-mingw\avr\include\util\delay.h **** 
  44:c:\avr-gcc-7.2.0-x64-mingw\avr\include\util\delay.h **** #include <inttypes.h>
  45:c:\avr-gcc-7.2.0-x64-mingw\avr\include\util\delay.h **** #include <util/delay_basic.h>
  46:c:\avr-gcc-7.2.0-x64-mingw\avr\include\util\delay.h **** #include <math.h>
  47:c:\avr-gcc-7.2.0-x64-mingw\avr\include\util\delay.h **** 
  48:c:\avr-gcc-7.2.0-x64-mingw\avr\include\util\delay.h **** /** \file */
  49:c:\avr-gcc-7.2.0-x64-mingw\avr\include\util\delay.h **** /** \defgroup util_delay <util/delay.h>: Convenience functions for busy-wait delay loops
  50:c:\avr-gcc-7.2.0-x64-mingw\avr\include\util\delay.h ****     \code
  51:c:\avr-gcc-7.2.0-x64-mingw\avr\include\util\delay.h ****     #define F_CPU 1000000UL  // 1 MHz
  52:c:\avr-gcc-7.2.0-x64-mingw\avr\include\util\delay.h ****     //#define F_CPU 14.7456E6
  53:c:\avr-gcc-7.2.0-x64-mingw\avr\include\util\delay.h ****     #include <util/delay.h>
  54:c:\avr-gcc-7.2.0-x64-mingw\avr\include\util\delay.h ****     \endcode
  55:c:\avr-gcc-7.2.0-x64-mingw\avr\include\util\delay.h **** 
  56:c:\avr-gcc-7.2.0-x64-mingw\avr\include\util\delay.h ****     \note As an alternative method, it is possible to pass the
  57:c:\avr-gcc-7.2.0-x64-mingw\avr\include\util\delay.h ****     F_CPU macro down to the compiler from the Makefile.
  58:c:\avr-gcc-7.2.0-x64-mingw\avr\include\util\delay.h ****     Obviously, in that case, no \c \#define statement should be
  59:c:\avr-gcc-7.2.0-x64-mingw\avr\include\util\delay.h ****     used.
  60:c:\avr-gcc-7.2.0-x64-mingw\avr\include\util\delay.h **** 
  61:c:\avr-gcc-7.2.0-x64-mingw\avr\include\util\delay.h ****     The functions in this header file are wrappers around the basic
  62:c:\avr-gcc-7.2.0-x64-mingw\avr\include\util\delay.h ****     busy-wait functions from <util/delay_basic.h>.  They are meant as
  63:c:\avr-gcc-7.2.0-x64-mingw\avr\include\util\delay.h ****     convenience functions where actual time values can be specified
  64:c:\avr-gcc-7.2.0-x64-mingw\avr\include\util\delay.h ****     rather than a number of cycles to wait for.  The idea behind is
  65:c:\avr-gcc-7.2.0-x64-mingw\avr\include\util\delay.h ****     that compile-time constant expressions will be eliminated by
  66:c:\avr-gcc-7.2.0-x64-mingw\avr\include\util\delay.h ****     compiler optimization so floating-point expressions can be used
  67:c:\avr-gcc-7.2.0-x64-mingw\avr\include\util\delay.h ****     to calculate the number of delay cycles needed based on the CPU
  68:c:\avr-gcc-7.2.0-x64-mingw\avr\include\util\delay.h ****     frequency passed by the macro F_CPU.
  69:c:\avr-gcc-7.2.0-x64-mingw\avr\include\util\delay.h **** 
  70:c:\avr-gcc-7.2.0-x64-mingw\avr\include\util\delay.h ****     \note In order for these functions to work as intended, compiler
  71:c:\avr-gcc-7.2.0-x64-mingw\avr\include\util\delay.h ****     optimizations <em>must</em> be enabled, and the delay time
  72:c:\avr-gcc-7.2.0-x64-mingw\avr\include\util\delay.h ****     <em>must</em> be an expression that is a known constant at
  73:c:\avr-gcc-7.2.0-x64-mingw\avr\include\util\delay.h ****     compile-time.  If these requirements are not met, the resulting
  74:c:\avr-gcc-7.2.0-x64-mingw\avr\include\util\delay.h ****     delay will be much longer (and basically unpredictable), and
  75:c:\avr-gcc-7.2.0-x64-mingw\avr\include\util\delay.h ****     applications that otherwise do not use floating-point calculations
  76:c:\avr-gcc-7.2.0-x64-mingw\avr\include\util\delay.h ****     will experience severe code bloat by the floating-point library
  77:c:\avr-gcc-7.2.0-x64-mingw\avr\include\util\delay.h ****     routines linked into the application.
  78:c:\avr-gcc-7.2.0-x64-mingw\avr\include\util\delay.h **** 
  79:c:\avr-gcc-7.2.0-x64-mingw\avr\include\util\delay.h ****     The functions available allow the specification of microsecond, and
  80:c:\avr-gcc-7.2.0-x64-mingw\avr\include\util\delay.h ****     millisecond delays directly, using the application-supplied macro
  81:c:\avr-gcc-7.2.0-x64-mingw\avr\include\util\delay.h ****     F_CPU as the CPU clock frequency (in Hertz).
  82:c:\avr-gcc-7.2.0-x64-mingw\avr\include\util\delay.h **** 
  83:c:\avr-gcc-7.2.0-x64-mingw\avr\include\util\delay.h **** */
  84:c:\avr-gcc-7.2.0-x64-mingw\avr\include\util\delay.h **** 
  85:c:\avr-gcc-7.2.0-x64-mingw\avr\include\util\delay.h **** #if !defined(__DOXYGEN__)
  86:c:\avr-gcc-7.2.0-x64-mingw\avr\include\util\delay.h **** static __inline__ void _delay_us(double __us) __attribute__((__always_inline__));
  87:c:\avr-gcc-7.2.0-x64-mingw\avr\include\util\delay.h **** static __inline__ void _delay_ms(double __ms) __attribute__((__always_inline__));
  88:c:\avr-gcc-7.2.0-x64-mingw\avr\include\util\delay.h **** #endif
  89:c:\avr-gcc-7.2.0-x64-mingw\avr\include\util\delay.h **** 
  90:c:\avr-gcc-7.2.0-x64-mingw\avr\include\util\delay.h **** #ifndef F_CPU
  91:c:\avr-gcc-7.2.0-x64-mingw\avr\include\util\delay.h **** /* prevent compiler error by supplying a default */
  92:c:\avr-gcc-7.2.0-x64-mingw\avr\include\util\delay.h **** # warning "F_CPU not defined for <util/delay.h>"
  93:c:\avr-gcc-7.2.0-x64-mingw\avr\include\util\delay.h **** /** \ingroup util_delay
  94:c:\avr-gcc-7.2.0-x64-mingw\avr\include\util\delay.h ****     \def F_CPU
  95:c:\avr-gcc-7.2.0-x64-mingw\avr\include\util\delay.h ****     \brief CPU frequency in Hz
  96:c:\avr-gcc-7.2.0-x64-mingw\avr\include\util\delay.h **** 
  97:c:\avr-gcc-7.2.0-x64-mingw\avr\include\util\delay.h ****     The macro F_CPU specifies the CPU frequency to be considered by
  98:c:\avr-gcc-7.2.0-x64-mingw\avr\include\util\delay.h ****     the delay macros.  This macro is normally supplied by the
  99:c:\avr-gcc-7.2.0-x64-mingw\avr\include\util\delay.h ****     environment (e.g. from within a project header, or the project's
 100:c:\avr-gcc-7.2.0-x64-mingw\avr\include\util\delay.h ****     Makefile).  The value 1 MHz here is only provided as a "vanilla"
 101:c:\avr-gcc-7.2.0-x64-mingw\avr\include\util\delay.h ****     fallback if no such user-provided definition could be found.
 102:c:\avr-gcc-7.2.0-x64-mingw\avr\include\util\delay.h **** 
 103:c:\avr-gcc-7.2.0-x64-mingw\avr\include\util\delay.h ****     In terms of the delay functions, the CPU frequency can be given as
 104:c:\avr-gcc-7.2.0-x64-mingw\avr\include\util\delay.h ****     a floating-point constant (e.g. 3.6864E6 for 3.6864 MHz).
 105:c:\avr-gcc-7.2.0-x64-mingw\avr\include\util\delay.h ****     However, the macros in <util/setbaud.h> require it to be an
 106:c:\avr-gcc-7.2.0-x64-mingw\avr\include\util\delay.h ****     integer value.
 107:c:\avr-gcc-7.2.0-x64-mingw\avr\include\util\delay.h ****  */
 108:c:\avr-gcc-7.2.0-x64-mingw\avr\include\util\delay.h **** # define F_CPU 1000000UL
 109:c:\avr-gcc-7.2.0-x64-mingw\avr\include\util\delay.h **** #endif
 110:c:\avr-gcc-7.2.0-x64-mingw\avr\include\util\delay.h **** 
 111:c:\avr-gcc-7.2.0-x64-mingw\avr\include\util\delay.h **** #ifndef __OPTIMIZE__
 112:c:\avr-gcc-7.2.0-x64-mingw\avr\include\util\delay.h **** # warning "Compiler optimizations disabled; functions from <util/delay.h> won't work as designed"
 113:c:\avr-gcc-7.2.0-x64-mingw\avr\include\util\delay.h **** #endif
 114:c:\avr-gcc-7.2.0-x64-mingw\avr\include\util\delay.h **** 
 115:c:\avr-gcc-7.2.0-x64-mingw\avr\include\util\delay.h **** #if __HAS_DELAY_CYCLES && defined(__OPTIMIZE__) && \
 116:c:\avr-gcc-7.2.0-x64-mingw\avr\include\util\delay.h ****   !defined(__DELAY_BACKWARD_COMPATIBLE__) &&	   \
 117:c:\avr-gcc-7.2.0-x64-mingw\avr\include\util\delay.h ****   __STDC_HOSTED__
 118:c:\avr-gcc-7.2.0-x64-mingw\avr\include\util\delay.h **** #  include <math.h>
 119:c:\avr-gcc-7.2.0-x64-mingw\avr\include\util\delay.h **** #endif
 120:c:\avr-gcc-7.2.0-x64-mingw\avr\include\util\delay.h **** 
 121:c:\avr-gcc-7.2.0-x64-mingw\avr\include\util\delay.h **** /**
 122:c:\avr-gcc-7.2.0-x64-mingw\avr\include\util\delay.h ****    \ingroup util_delay
 123:c:\avr-gcc-7.2.0-x64-mingw\avr\include\util\delay.h **** 
 124:c:\avr-gcc-7.2.0-x64-mingw\avr\include\util\delay.h ****    Perform a delay of \c __ms milliseconds, using _delay_loop_2().
 125:c:\avr-gcc-7.2.0-x64-mingw\avr\include\util\delay.h **** 
 126:c:\avr-gcc-7.2.0-x64-mingw\avr\include\util\delay.h ****    The macro F_CPU is supposed to be defined to a
 127:c:\avr-gcc-7.2.0-x64-mingw\avr\include\util\delay.h ****    constant defining the CPU clock frequency (in Hertz).
 128:c:\avr-gcc-7.2.0-x64-mingw\avr\include\util\delay.h **** 
 129:c:\avr-gcc-7.2.0-x64-mingw\avr\include\util\delay.h ****    The maximal possible delay is 262.14 ms / F_CPU in MHz.
 130:c:\avr-gcc-7.2.0-x64-mingw\avr\include\util\delay.h **** 
 131:c:\avr-gcc-7.2.0-x64-mingw\avr\include\util\delay.h ****    When the user request delay which exceed the maximum possible one,
 132:c:\avr-gcc-7.2.0-x64-mingw\avr\include\util\delay.h ****    _delay_ms() provides a decreased resolution functionality. In this
 133:c:\avr-gcc-7.2.0-x64-mingw\avr\include\util\delay.h ****    mode _delay_ms() will work with a resolution of 1/10 ms, providing
 134:c:\avr-gcc-7.2.0-x64-mingw\avr\include\util\delay.h ****    delays up to 6.5535 seconds (independent from CPU frequency).  The
 135:c:\avr-gcc-7.2.0-x64-mingw\avr\include\util\delay.h ****    user will not be informed about decreased resolution.
 136:c:\avr-gcc-7.2.0-x64-mingw\avr\include\util\delay.h **** 
 137:c:\avr-gcc-7.2.0-x64-mingw\avr\include\util\delay.h ****    If the avr-gcc toolchain has __builtin_avr_delay_cycles()
 138:c:\avr-gcc-7.2.0-x64-mingw\avr\include\util\delay.h ****    support, maximal possible delay is 4294967.295 ms/ F_CPU in MHz. For
 139:c:\avr-gcc-7.2.0-x64-mingw\avr\include\util\delay.h ****    values greater than the maximal possible delay, overflows results in
 140:c:\avr-gcc-7.2.0-x64-mingw\avr\include\util\delay.h ****    no delay i.e., 0ms.
 141:c:\avr-gcc-7.2.0-x64-mingw\avr\include\util\delay.h **** 
 142:c:\avr-gcc-7.2.0-x64-mingw\avr\include\util\delay.h ****    Conversion of \c __ms into clock cycles may not always result in
 143:c:\avr-gcc-7.2.0-x64-mingw\avr\include\util\delay.h ****    integer.  By default, the clock cycles rounded up to next
 144:c:\avr-gcc-7.2.0-x64-mingw\avr\include\util\delay.h ****    integer. This ensures that the user gets at least \c __ms
 145:c:\avr-gcc-7.2.0-x64-mingw\avr\include\util\delay.h ****    microseconds of delay.
 146:c:\avr-gcc-7.2.0-x64-mingw\avr\include\util\delay.h **** 
 147:c:\avr-gcc-7.2.0-x64-mingw\avr\include\util\delay.h ****    Alternatively, by defining the macro \c __DELAY_ROUND_DOWN__, or
 148:c:\avr-gcc-7.2.0-x64-mingw\avr\include\util\delay.h ****    \c __DELAY_ROUND_CLOSEST__, before including this header file, the
 149:c:\avr-gcc-7.2.0-x64-mingw\avr\include\util\delay.h ****    algorithm can be made to round down, or round to closest integer,
 150:c:\avr-gcc-7.2.0-x64-mingw\avr\include\util\delay.h ****    respectively.
 151:c:\avr-gcc-7.2.0-x64-mingw\avr\include\util\delay.h **** 
 152:c:\avr-gcc-7.2.0-x64-mingw\avr\include\util\delay.h ****    \note
 153:c:\avr-gcc-7.2.0-x64-mingw\avr\include\util\delay.h **** 
 154:c:\avr-gcc-7.2.0-x64-mingw\avr\include\util\delay.h ****    The implementation of _delay_ms() based on
 155:c:\avr-gcc-7.2.0-x64-mingw\avr\include\util\delay.h ****    __builtin_avr_delay_cycles() is not backward compatible with older
 156:c:\avr-gcc-7.2.0-x64-mingw\avr\include\util\delay.h ****    implementations.  In order to get functionality backward compatible
 157:c:\avr-gcc-7.2.0-x64-mingw\avr\include\util\delay.h ****    with previous versions, the macro \c "__DELAY_BACKWARD_COMPATIBLE__"
 158:c:\avr-gcc-7.2.0-x64-mingw\avr\include\util\delay.h ****    must be defined before including this header file. Also, the
 159:c:\avr-gcc-7.2.0-x64-mingw\avr\include\util\delay.h ****    backward compatible algorithm will be chosen if the code is
 160:c:\avr-gcc-7.2.0-x64-mingw\avr\include\util\delay.h ****    compiled in a <em>freestanding environment</em> (GCC option
 161:c:\avr-gcc-7.2.0-x64-mingw\avr\include\util\delay.h ****    \c -ffreestanding), as the math functions required for rounding are
 162:c:\avr-gcc-7.2.0-x64-mingw\avr\include\util\delay.h ****    not available to the compiler then.
 163:c:\avr-gcc-7.2.0-x64-mingw\avr\include\util\delay.h **** 
 164:c:\avr-gcc-7.2.0-x64-mingw\avr\include\util\delay.h ****  */
 165:c:\avr-gcc-7.2.0-x64-mingw\avr\include\util\delay.h **** void
 166:c:\avr-gcc-7.2.0-x64-mingw\avr\include\util\delay.h **** _delay_ms(double __ms)
 167:c:\avr-gcc-7.2.0-x64-mingw\avr\include\util\delay.h **** {
 168:c:\avr-gcc-7.2.0-x64-mingw\avr\include\util\delay.h **** 	double __tmp ;
 169:c:\avr-gcc-7.2.0-x64-mingw\avr\include\util\delay.h **** #if __HAS_DELAY_CYCLES && defined(__OPTIMIZE__) && \
 170:c:\avr-gcc-7.2.0-x64-mingw\avr\include\util\delay.h ****   !defined(__DELAY_BACKWARD_COMPATIBLE__) &&	   \
 171:c:\avr-gcc-7.2.0-x64-mingw\avr\include\util\delay.h ****   __STDC_HOSTED__
 172:c:\avr-gcc-7.2.0-x64-mingw\avr\include\util\delay.h **** 	uint32_t __ticks_dc;
 173:c:\avr-gcc-7.2.0-x64-mingw\avr\include\util\delay.h **** 	extern void __builtin_avr_delay_cycles(unsigned long);
 174:c:\avr-gcc-7.2.0-x64-mingw\avr\include\util\delay.h **** 	__tmp = ((F_CPU) / 1e3) * __ms;
 175:c:\avr-gcc-7.2.0-x64-mingw\avr\include\util\delay.h **** 
 176:c:\avr-gcc-7.2.0-x64-mingw\avr\include\util\delay.h **** 	#if defined(__DELAY_ROUND_DOWN__)
 177:c:\avr-gcc-7.2.0-x64-mingw\avr\include\util\delay.h **** 		__ticks_dc = (uint32_t)fabs(__tmp);
 178:c:\avr-gcc-7.2.0-x64-mingw\avr\include\util\delay.h **** 
 179:c:\avr-gcc-7.2.0-x64-mingw\avr\include\util\delay.h **** 	#elif defined(__DELAY_ROUND_CLOSEST__)
 180:c:\avr-gcc-7.2.0-x64-mingw\avr\include\util\delay.h **** 		__ticks_dc = (uint32_t)(fabs(__tmp)+0.5);
 181:c:\avr-gcc-7.2.0-x64-mingw\avr\include\util\delay.h **** 
 182:c:\avr-gcc-7.2.0-x64-mingw\avr\include\util\delay.h **** 	#else
 183:c:\avr-gcc-7.2.0-x64-mingw\avr\include\util\delay.h **** 		//round up by default
 184:c:\avr-gcc-7.2.0-x64-mingw\avr\include\util\delay.h **** 		__ticks_dc = (uint32_t)(ceil(fabs(__tmp)));
 185:c:\avr-gcc-7.2.0-x64-mingw\avr\include\util\delay.h **** 	#endif
 186:c:\avr-gcc-7.2.0-x64-mingw\avr\include\util\delay.h **** 
 187:c:\avr-gcc-7.2.0-x64-mingw\avr\include\util\delay.h **** 	__builtin_avr_delay_cycles(__ticks_dc);
 242               		.loc 3 187 0
 243 00aa EFE9      		ldi r30,lo8(3999)
 244 00ac FFE0      		ldi r31,hi8(3999)
 245 00ae 3197      	1:	sbiw r30,1
 246 00b0 01F4      		brne 1b
 247 00b2 00C0      		rjmp .
 248 00b4 0000      		nop
 249 00b6 00C0      		rjmp .L7
 250               	.LVL20:
 251               	.L11:
 252               	.LBE198:
 253               	.LBE197:
 254               	.LBB199:
 581:../../tmk_core/protocol/lufa/lufa.c ****     }
 255               		.loc 1 581 0
 256 00b8 8FB7      		in r24,__SREG__
 257               	.LVL21:
 258               	/* #APP */
 259               	 ;  581 "../../tmk_core/protocol/lufa/lufa.c" 1
 260 00ba F894      		cli
 261               	 ;  0 "" 2
 262               	/* #NOAPP */
 263 00bc 21E0      		ldi r18,lo8(1)
 264               	.LVL22:
 265 00be 2093 0000 		sts console_flush,r18
 266               	.LVL23:
 267 00c2 8FBF      		out __SREG__,r24
 268 00c4 00C0      		rjmp .L13
 269               	.LBE199:
 270               		.cfi_endproc
 271               	.LFE122:
 273               		.section	.text.send_consumer,"ax",@progbits
 275               	send_consumer:
 276               	.LFB121:
 505:../../tmk_core/protocol/lufa/lufa.c ****     uint8_t timeout = 255;
 277               		.loc 1 505 0
 278               		.cfi_startproc
 279               	.LVL24:
 280 0000 CF93      		push r28
 281               	.LCFI0:
 282               		.cfi_def_cfa_offset 3
 283               		.cfi_offset 28, -2
 284 0002 DF93      		push r29
 285               	.LCFI1:
 286               		.cfi_def_cfa_offset 4
 287               		.cfi_offset 29, -3
 288 0004 00D0      		rcall .
 289 0006 1F92      		push __zero_reg__
 290               	.LCFI2:
 291               		.cfi_def_cfa_offset 7
 292 0008 CDB7      		in r28,__SP_L__
 293 000a DEB7      		in r29,__SP_H__
 294               	.LCFI3:
 295               		.cfi_def_cfa_register 28
 296               	/* prologue: function */
 297               	/* frame size = 3 */
 298               	/* stack size = 5 */
 299               	.L__stack_usage = 5
 300 000c 9C01      		movw r18,r24
 301               	.LVL25:
 508:../../tmk_core/protocol/lufa/lufa.c ****         return;
 302               		.loc 1 508 0
 303 000e 8091 0000 		lds r24,USB_DeviceState
 304               	.LVL26:
 305 0012 8430      		cpi r24,lo8(4)
 306 0014 01F4      		brne .L27
 511:../../tmk_core/protocol/lufa/lufa.c ****         .report_id = REPORT_ID_CONSUMER,
 307               		.loc 1 511 0
 308 0016 93E0      		ldi r25,lo8(3)
 309 0018 9983      		std Y+1,r25
 310 001a 3B83      		std Y+3,r19
 311 001c 2A83      		std Y+2,r18
 312               	.LVL27:
 313               	.LBB200:
 314               	.LBB201:
 270:../../tmk_core/protocol/lufa/LUFA-git/LUFA/Drivers/USB/Core/AVR8/../AVR8/Endpoint_AVR8.h **** 				#endif
 315               		.loc 2 270 0
 316 001e 9093 E900 		sts 233,r25
 317               	.LVL28:
 318 0022 8FEF      		ldi r24,lo8(-1)
 319               	.LVL29:
 320               	.L29:
 321               	.LBE201:
 322               	.LBE200:
 323               	.LBB202:
 324               	.LBB203:
 360:../../tmk_core/protocol/lufa/LUFA-git/LUFA/Drivers/USB/Core/AVR8/../AVR8/Endpoint_AVR8.h **** 			}
 325               		.loc 2 360 0
 326 0024 9091 E800 		lds r25,232
 327 0028 8150      		subi r24,lo8(-(-1))
 328               	.LVL30:
 329               	.LBE203:
 330               	.LBE202:
 518:../../tmk_core/protocol/lufa/lufa.c ****     if (!Endpoint_IsReadWriteAllowed()) return;
 331               		.loc 1 518 0
 332 002a 95FD      		sbrc r25,5
 333 002c 00C0      		rjmp .L30
 334               	.LVL31:
 335               	.LBB204:
 336               	.LBB205:
 188:c:\avr-gcc-7.2.0-x64-mingw\avr\include\util\delay.h **** 
 189:c:\avr-gcc-7.2.0-x64-mingw\avr\include\util\delay.h **** #else
 190:c:\avr-gcc-7.2.0-x64-mingw\avr\include\util\delay.h **** 	uint16_t __ticks;
 191:c:\avr-gcc-7.2.0-x64-mingw\avr\include\util\delay.h **** 	__tmp = ((F_CPU) / 4e3) * __ms;
 192:c:\avr-gcc-7.2.0-x64-mingw\avr\include\util\delay.h **** 	if (__tmp < 1.0)
 193:c:\avr-gcc-7.2.0-x64-mingw\avr\include\util\delay.h **** 		__ticks = 1;
 194:c:\avr-gcc-7.2.0-x64-mingw\avr\include\util\delay.h **** 	else if (__tmp > 65535)
 195:c:\avr-gcc-7.2.0-x64-mingw\avr\include\util\delay.h **** 	{
 196:c:\avr-gcc-7.2.0-x64-mingw\avr\include\util\delay.h **** 		//	__ticks = requested delay in 1/10 ms
 197:c:\avr-gcc-7.2.0-x64-mingw\avr\include\util\delay.h **** 		__ticks = (uint16_t) (__ms * 10.0);
 198:c:\avr-gcc-7.2.0-x64-mingw\avr\include\util\delay.h **** 		while(__ticks)
 199:c:\avr-gcc-7.2.0-x64-mingw\avr\include\util\delay.h **** 		{
 200:c:\avr-gcc-7.2.0-x64-mingw\avr\include\util\delay.h **** 			// wait 1/10 ms
 201:c:\avr-gcc-7.2.0-x64-mingw\avr\include\util\delay.h **** 			_delay_loop_2(((F_CPU) / 4e3) / 10);
 202:c:\avr-gcc-7.2.0-x64-mingw\avr\include\util\delay.h **** 			__ticks --;
 203:c:\avr-gcc-7.2.0-x64-mingw\avr\include\util\delay.h **** 		}
 204:c:\avr-gcc-7.2.0-x64-mingw\avr\include\util\delay.h **** 		return;
 205:c:\avr-gcc-7.2.0-x64-mingw\avr\include\util\delay.h **** 	}
 206:c:\avr-gcc-7.2.0-x64-mingw\avr\include\util\delay.h **** 	else
 207:c:\avr-gcc-7.2.0-x64-mingw\avr\include\util\delay.h **** 		__ticks = (uint16_t)__tmp;
 208:c:\avr-gcc-7.2.0-x64-mingw\avr\include\util\delay.h **** 	_delay_loop_2(__ticks);
 209:c:\avr-gcc-7.2.0-x64-mingw\avr\include\util\delay.h **** #endif
 210:c:\avr-gcc-7.2.0-x64-mingw\avr\include\util\delay.h **** }
 211:c:\avr-gcc-7.2.0-x64-mingw\avr\include\util\delay.h **** 
 212:c:\avr-gcc-7.2.0-x64-mingw\avr\include\util\delay.h **** /**
 213:c:\avr-gcc-7.2.0-x64-mingw\avr\include\util\delay.h ****    \ingroup util_delay
 214:c:\avr-gcc-7.2.0-x64-mingw\avr\include\util\delay.h **** 
 215:c:\avr-gcc-7.2.0-x64-mingw\avr\include\util\delay.h ****    Perform a delay of \c __us microseconds, using _delay_loop_1().
 216:c:\avr-gcc-7.2.0-x64-mingw\avr\include\util\delay.h **** 
 217:c:\avr-gcc-7.2.0-x64-mingw\avr\include\util\delay.h ****    The macro F_CPU is supposed to be defined to a
 218:c:\avr-gcc-7.2.0-x64-mingw\avr\include\util\delay.h ****    constant defining the CPU clock frequency (in Hertz).
 219:c:\avr-gcc-7.2.0-x64-mingw\avr\include\util\delay.h **** 
 220:c:\avr-gcc-7.2.0-x64-mingw\avr\include\util\delay.h ****    The maximal possible delay is 768 us / F_CPU in MHz.
 221:c:\avr-gcc-7.2.0-x64-mingw\avr\include\util\delay.h **** 
 222:c:\avr-gcc-7.2.0-x64-mingw\avr\include\util\delay.h ****    If the user requests a delay greater than the maximal possible one,
 223:c:\avr-gcc-7.2.0-x64-mingw\avr\include\util\delay.h ****    _delay_us() will automatically call _delay_ms() instead.  The user
 224:c:\avr-gcc-7.2.0-x64-mingw\avr\include\util\delay.h ****    will not be informed about this case.
 225:c:\avr-gcc-7.2.0-x64-mingw\avr\include\util\delay.h **** 
 226:c:\avr-gcc-7.2.0-x64-mingw\avr\include\util\delay.h ****    If the avr-gcc toolchain has __builtin_avr_delay_cycles()
 227:c:\avr-gcc-7.2.0-x64-mingw\avr\include\util\delay.h ****    support, maximal possible delay is 4294967.295 us/ F_CPU in MHz. For
 228:c:\avr-gcc-7.2.0-x64-mingw\avr\include\util\delay.h ****    values greater than the maximal possible delay, overflow results in
 229:c:\avr-gcc-7.2.0-x64-mingw\avr\include\util\delay.h ****    no delay i.e., 0us.
 230:c:\avr-gcc-7.2.0-x64-mingw\avr\include\util\delay.h **** 
 231:c:\avr-gcc-7.2.0-x64-mingw\avr\include\util\delay.h ****    Conversion of \c __us into clock cycles may not always result in
 232:c:\avr-gcc-7.2.0-x64-mingw\avr\include\util\delay.h ****    integer.  By default, the clock cycles rounded up to next
 233:c:\avr-gcc-7.2.0-x64-mingw\avr\include\util\delay.h ****    integer. This ensures that the user gets at least \c __us
 234:c:\avr-gcc-7.2.0-x64-mingw\avr\include\util\delay.h ****    microseconds of delay.
 235:c:\avr-gcc-7.2.0-x64-mingw\avr\include\util\delay.h **** 
 236:c:\avr-gcc-7.2.0-x64-mingw\avr\include\util\delay.h ****    Alternatively, by defining the macro \c __DELAY_ROUND_DOWN__, or
 237:c:\avr-gcc-7.2.0-x64-mingw\avr\include\util\delay.h ****    \c __DELAY_ROUND_CLOSEST__, before including this header file, the
 238:c:\avr-gcc-7.2.0-x64-mingw\avr\include\util\delay.h ****    algorithm can be made to round down, or round to closest integer,
 239:c:\avr-gcc-7.2.0-x64-mingw\avr\include\util\delay.h ****    respectively.
 240:c:\avr-gcc-7.2.0-x64-mingw\avr\include\util\delay.h **** 
 241:c:\avr-gcc-7.2.0-x64-mingw\avr\include\util\delay.h ****    \note
 242:c:\avr-gcc-7.2.0-x64-mingw\avr\include\util\delay.h **** 
 243:c:\avr-gcc-7.2.0-x64-mingw\avr\include\util\delay.h ****    The implementation of _delay_ms() based on
 244:c:\avr-gcc-7.2.0-x64-mingw\avr\include\util\delay.h ****    __builtin_avr_delay_cycles() is not backward compatible with older
 245:c:\avr-gcc-7.2.0-x64-mingw\avr\include\util\delay.h ****    implementations.  In order to get functionality backward compatible
 246:c:\avr-gcc-7.2.0-x64-mingw\avr\include\util\delay.h ****    with previous versions, the macro \c __DELAY_BACKWARD_COMPATIBLE__
 247:c:\avr-gcc-7.2.0-x64-mingw\avr\include\util\delay.h ****    must be defined before including this header file. Also, the
 248:c:\avr-gcc-7.2.0-x64-mingw\avr\include\util\delay.h ****    backward compatible algorithm will be chosen if the code is
 249:c:\avr-gcc-7.2.0-x64-mingw\avr\include\util\delay.h ****    compiled in a <em>freestanding environment</em> (GCC option
 250:c:\avr-gcc-7.2.0-x64-mingw\avr\include\util\delay.h ****    \c -ffreestanding), as the math functions required for rounding are
 251:c:\avr-gcc-7.2.0-x64-mingw\avr\include\util\delay.h ****    not available to the compiler then.
 252:c:\avr-gcc-7.2.0-x64-mingw\avr\include\util\delay.h **** 
 253:c:\avr-gcc-7.2.0-x64-mingw\avr\include\util\delay.h ****  */
 254:c:\avr-gcc-7.2.0-x64-mingw\avr\include\util\delay.h **** void
 255:c:\avr-gcc-7.2.0-x64-mingw\avr\include\util\delay.h **** _delay_us(double __us)
 256:c:\avr-gcc-7.2.0-x64-mingw\avr\include\util\delay.h **** {
 257:c:\avr-gcc-7.2.0-x64-mingw\avr\include\util\delay.h **** 	double __tmp ;
 258:c:\avr-gcc-7.2.0-x64-mingw\avr\include\util\delay.h **** #if __HAS_DELAY_CYCLES && defined(__OPTIMIZE__) && \
 259:c:\avr-gcc-7.2.0-x64-mingw\avr\include\util\delay.h ****   !defined(__DELAY_BACKWARD_COMPATIBLE__) &&	   \
 260:c:\avr-gcc-7.2.0-x64-mingw\avr\include\util\delay.h ****   __STDC_HOSTED__
 261:c:\avr-gcc-7.2.0-x64-mingw\avr\include\util\delay.h **** 	uint32_t __ticks_dc;
 262:c:\avr-gcc-7.2.0-x64-mingw\avr\include\util\delay.h **** 	extern void __builtin_avr_delay_cycles(unsigned long);
 263:c:\avr-gcc-7.2.0-x64-mingw\avr\include\util\delay.h **** 	__tmp = ((F_CPU) / 1e6) * __us;
 264:c:\avr-gcc-7.2.0-x64-mingw\avr\include\util\delay.h **** 
 265:c:\avr-gcc-7.2.0-x64-mingw\avr\include\util\delay.h **** 	#if defined(__DELAY_ROUND_DOWN__)
 266:c:\avr-gcc-7.2.0-x64-mingw\avr\include\util\delay.h **** 		__ticks_dc = (uint32_t)fabs(__tmp);
 267:c:\avr-gcc-7.2.0-x64-mingw\avr\include\util\delay.h **** 
 268:c:\avr-gcc-7.2.0-x64-mingw\avr\include\util\delay.h **** 	#elif defined(__DELAY_ROUND_CLOSEST__)
 269:c:\avr-gcc-7.2.0-x64-mingw\avr\include\util\delay.h **** 		__ticks_dc = (uint32_t)(fabs(__tmp)+0.5);
 270:c:\avr-gcc-7.2.0-x64-mingw\avr\include\util\delay.h **** 
 271:c:\avr-gcc-7.2.0-x64-mingw\avr\include\util\delay.h **** 	#else
 272:c:\avr-gcc-7.2.0-x64-mingw\avr\include\util\delay.h **** 		//round up by default
 273:c:\avr-gcc-7.2.0-x64-mingw\avr\include\util\delay.h **** 		__ticks_dc = (uint32_t)(ceil(fabs(__tmp)));
 274:c:\avr-gcc-7.2.0-x64-mingw\avr\include\util\delay.h **** 	#endif
 275:c:\avr-gcc-7.2.0-x64-mingw\avr\include\util\delay.h **** 
 276:c:\avr-gcc-7.2.0-x64-mingw\avr\include\util\delay.h **** 	__builtin_avr_delay_cycles(__ticks_dc);
 337               		.loc 3 276 0
 338 002e 95ED      		ldi r25,lo8(-43)
 339 0030 9A95      	1:	dec r25
 340 0032 01F4      		brne 1b
 341 0034 0000      		nop
 342               	.LVL32:
 343               	.LBE205:
 344               	.LBE204:
 518:../../tmk_core/protocol/lufa/lufa.c ****     if (!Endpoint_IsReadWriteAllowed()) return;
 345               		.loc 1 518 0
 346 0036 8111      		cpse r24,__zero_reg__
 347 0038 00C0      		rjmp .L29
 348               	.LVL33:
 349               	.L30:
 350               	.LBB206:
 351               	.LBB207:
 360:../../tmk_core/protocol/lufa/LUFA-git/LUFA/Drivers/USB/Core/AVR8/../AVR8/Endpoint_AVR8.h **** 			}
 352               		.loc 2 360 0
 353 003a 8091 E800 		lds r24,232
 354               	.LBE207:
 355               	.LBE206:
 519:../../tmk_core/protocol/lufa/lufa.c **** 
 356               		.loc 1 519 0
 357 003e 85FF      		sbrs r24,5
 358 0040 00C0      		rjmp .L27
 521:../../tmk_core/protocol/lufa/lufa.c ****     Endpoint_ClearIN();
 359               		.loc 1 521 0
 360 0042 50E0      		ldi r21,0
 361 0044 40E0      		ldi r20,0
 362 0046 63E0      		ldi r22,lo8(3)
 363 0048 70E0      		ldi r23,0
 364 004a CE01      		movw r24,r28
 365 004c 0196      		adiw r24,1
 366 004e 0E94 0000 		call Endpoint_Write_Stream_LE
 367               	.LVL34:
 368               	.LBB208:
 369               	.LBB209:
 456:../../tmk_core/protocol/lufa/LUFA-git/LUFA/Drivers/USB/Core/AVR8/../AVR8/Endpoint_AVR8.h **** 				#else
 370               		.loc 2 456 0
 371 0052 8091 E800 		lds r24,232
 372 0056 8E77      		andi r24,lo8(126)
 373 0058 8093 E800 		sts 232,r24
 374               	.LVL35:
 375               	.L27:
 376               	/* epilogue start */
 377               	.LBE209:
 378               	.LBE208:
 523:../../tmk_core/protocol/lufa/lufa.c **** 
 379               		.loc 1 523 0
 380 005c 0F90      		pop __tmp_reg__
 381 005e 0F90      		pop __tmp_reg__
 382 0060 0F90      		pop __tmp_reg__
 383 0062 DF91      		pop r29
 384 0064 CF91      		pop r28
 385 0066 0895      		ret
 386               		.cfi_endproc
 387               	.LFE121:
 389               		.section	.text.send_system,"ax",@progbits
 391               	send_system:
 392               	.LFB120:
 484:../../tmk_core/protocol/lufa/lufa.c ****     uint8_t timeout = 255;
 393               		.loc 1 484 0
 394               		.cfi_startproc
 395               	.LVL36:
 396 0000 CF93      		push r28
 397               	.LCFI4:
 398               		.cfi_def_cfa_offset 3
 399               		.cfi_offset 28, -2
 400 0002 DF93      		push r29
 401               	.LCFI5:
 402               		.cfi_def_cfa_offset 4
 403               		.cfi_offset 29, -3
 404 0004 00D0      		rcall .
 405 0006 1F92      		push __zero_reg__
 406               	.LCFI6:
 407               		.cfi_def_cfa_offset 7
 408 0008 CDB7      		in r28,__SP_L__
 409 000a DEB7      		in r29,__SP_H__
 410               	.LCFI7:
 411               		.cfi_def_cfa_register 28
 412               	/* prologue: function */
 413               	/* frame size = 3 */
 414               	/* stack size = 5 */
 415               	.L__stack_usage = 5
 416               	.LVL37:
 487:../../tmk_core/protocol/lufa/lufa.c ****         return;
 417               		.loc 1 487 0
 418 000c 2091 0000 		lds r18,USB_DeviceState
 419 0010 2430      		cpi r18,lo8(4)
 420 0012 01F4      		brne .L39
 490:../../tmk_core/protocol/lufa/lufa.c ****         .report_id = REPORT_ID_SYSTEM,
 421               		.loc 1 490 0
 422 0014 22E0      		ldi r18,lo8(2)
 423 0016 2983      		std Y+1,r18
 424 0018 9B83      		std Y+3,r25
 425 001a 8A83      		std Y+2,r24
 426               	.LVL38:
 427               	.LBB210:
 428               	.LBB211:
 270:../../tmk_core/protocol/lufa/LUFA-git/LUFA/Drivers/USB/Core/AVR8/../AVR8/Endpoint_AVR8.h **** 				#endif
 429               		.loc 2 270 0
 430 001c 83E0      		ldi r24,lo8(3)
 431               	.LVL39:
 432 001e 8093 E900 		sts 233,r24
 433               	.LVL40:
 434 0022 8FEF      		ldi r24,lo8(-1)
 435               	.LVL41:
 436               	.L41:
 437               	.LBE211:
 438               	.LBE210:
 439               	.LBB212:
 440               	.LBB213:
 360:../../tmk_core/protocol/lufa/LUFA-git/LUFA/Drivers/USB/Core/AVR8/../AVR8/Endpoint_AVR8.h **** 			}
 441               		.loc 2 360 0
 442 0024 9091 E800 		lds r25,232
 443 0028 8150      		subi r24,lo8(-(-1))
 444               	.LVL42:
 445               	.LBE213:
 446               	.LBE212:
 497:../../tmk_core/protocol/lufa/lufa.c ****     if (!Endpoint_IsReadWriteAllowed()) return;
 447               		.loc 1 497 0
 448 002a 95FD      		sbrc r25,5
 449 002c 00C0      		rjmp .L42
 450               	.LVL43:
 451               	.LBB214:
 452               	.LBB215:
 453               		.loc 3 276 0
 454 002e 95ED      		ldi r25,lo8(-43)
 455 0030 9A95      	1:	dec r25
 456 0032 01F4      		brne 1b
 457 0034 0000      		nop
 458               	.LVL44:
 459               	.LBE215:
 460               	.LBE214:
 497:../../tmk_core/protocol/lufa/lufa.c ****     if (!Endpoint_IsReadWriteAllowed()) return;
 461               		.loc 1 497 0
 462 0036 8111      		cpse r24,__zero_reg__
 463 0038 00C0      		rjmp .L41
 464               	.LVL45:
 465               	.L42:
 466               	.LBB216:
 467               	.LBB217:
 360:../../tmk_core/protocol/lufa/LUFA-git/LUFA/Drivers/USB/Core/AVR8/../AVR8/Endpoint_AVR8.h **** 			}
 468               		.loc 2 360 0
 469 003a 8091 E800 		lds r24,232
 470               	.LBE217:
 471               	.LBE216:
 498:../../tmk_core/protocol/lufa/lufa.c **** 
 472               		.loc 1 498 0
 473 003e 85FF      		sbrs r24,5
 474 0040 00C0      		rjmp .L39
 500:../../tmk_core/protocol/lufa/lufa.c ****     Endpoint_ClearIN();
 475               		.loc 1 500 0
 476 0042 50E0      		ldi r21,0
 477 0044 40E0      		ldi r20,0
 478 0046 63E0      		ldi r22,lo8(3)
 479 0048 70E0      		ldi r23,0
 480 004a CE01      		movw r24,r28
 481 004c 0196      		adiw r24,1
 482 004e 0E94 0000 		call Endpoint_Write_Stream_LE
 483               	.LVL46:
 484               	.LBB218:
 485               	.LBB219:
 456:../../tmk_core/protocol/lufa/LUFA-git/LUFA/Drivers/USB/Core/AVR8/../AVR8/Endpoint_AVR8.h **** 				#else
 486               		.loc 2 456 0
 487 0052 8091 E800 		lds r24,232
 488 0056 8E77      		andi r24,lo8(126)
 489 0058 8093 E800 		sts 232,r24
 490               	.LVL47:
 491               	.L39:
 492               	/* epilogue start */
 493               	.LBE219:
 494               	.LBE218:
 502:../../tmk_core/protocol/lufa/lufa.c **** 
 495               		.loc 1 502 0
 496 005c 0F90      		pop __tmp_reg__
 497 005e 0F90      		pop __tmp_reg__
 498 0060 0F90      		pop __tmp_reg__
 499 0062 DF91      		pop r29
 500 0064 CF91      		pop r28
 501 0066 0895      		ret
 502               		.cfi_endproc
 503               	.LFE120:
 505               		.section	.text.send_mouse,"ax",@progbits
 507               	send_mouse:
 508               	.LFB119:
 461:../../tmk_core/protocol/lufa/lufa.c **** #ifdef MOUSE_ENABLE
 509               		.loc 1 461 0
 510               		.cfi_startproc
 511               	.LVL48:
 512               	/* prologue: function */
 513               	/* frame size = 0 */
 514               	/* stack size = 0 */
 515               	.L__stack_usage = 0
 516 0000 9C01      		movw r18,r24
 517               	.LVL49:
 465:../../tmk_core/protocol/lufa/lufa.c ****         return;
 518               		.loc 1 465 0
 519 0002 8091 0000 		lds r24,USB_DeviceState
 520               	.LVL50:
 521 0006 8430      		cpi r24,lo8(4)
 522 0008 01F4      		brne .L51
 523               	.LVL51:
 524               	.LBB220:
 525               	.LBB221:
 270:../../tmk_core/protocol/lufa/LUFA-git/LUFA/Drivers/USB/Core/AVR8/../AVR8/Endpoint_AVR8.h **** 				#endif
 526               		.loc 2 270 0
 527 000a 82E0      		ldi r24,lo8(2)
 528 000c 8093 E900 		sts 233,r24
 529               	.LVL52:
 530 0010 9FEF      		ldi r25,lo8(-1)
 531               	.LVL53:
 532               	.L54:
 533               	.LBE221:
 534               	.LBE220:
 535               	.LBB222:
 536               	.LBB223:
 360:../../tmk_core/protocol/lufa/LUFA-git/LUFA/Drivers/USB/Core/AVR8/../AVR8/Endpoint_AVR8.h **** 			}
 537               		.loc 2 360 0
 538 0012 8091 E800 		lds r24,232
 539 0016 9150      		subi r25,lo8(-(-1))
 540               	.LVL54:
 541               	.LBE223:
 542               	.LBE222:
 472:../../tmk_core/protocol/lufa/lufa.c ****     if (!Endpoint_IsReadWriteAllowed()) return;
 543               		.loc 1 472 0
 544 0018 85FD      		sbrc r24,5
 545 001a 00C0      		rjmp .L55
 546               	.LVL55:
 547               	.LBB224:
 548               	.LBB225:
 549               		.loc 3 276 0
 550 001c 85ED      		ldi r24,lo8(-43)
 551 001e 8A95      	1:	dec r24
 552 0020 01F4      		brne 1b
 553 0022 0000      		nop
 554               	.LVL56:
 555               	.LBE225:
 556               	.LBE224:
 472:../../tmk_core/protocol/lufa/lufa.c ****     if (!Endpoint_IsReadWriteAllowed()) return;
 557               		.loc 1 472 0
 558 0024 9111      		cpse r25,__zero_reg__
 559 0026 00C0      		rjmp .L54
 560               	.LVL57:
 561               	.L55:
 562               	.LBB226:
 563               	.LBB227:
 360:../../tmk_core/protocol/lufa/LUFA-git/LUFA/Drivers/USB/Core/AVR8/../AVR8/Endpoint_AVR8.h **** 			}
 564               		.loc 2 360 0
 565 0028 8091 E800 		lds r24,232
 566               	.LBE227:
 567               	.LBE226:
 473:../../tmk_core/protocol/lufa/lufa.c **** 
 568               		.loc 1 473 0
 569 002c 85FF      		sbrs r24,5
 570 002e 00C0      		rjmp .L51
 476:../../tmk_core/protocol/lufa/lufa.c **** 
 571               		.loc 1 476 0
 572 0030 50E0      		ldi r21,0
 573 0032 40E0      		ldi r20,0
 574 0034 65E0      		ldi r22,lo8(5)
 575 0036 70E0      		ldi r23,0
 576 0038 C901      		movw r24,r18
 577 003a 0E94 0000 		call Endpoint_Write_Stream_LE
 578               	.LVL58:
 579               	.LBB228:
 580               	.LBB229:
 456:../../tmk_core/protocol/lufa/LUFA-git/LUFA/Drivers/USB/Core/AVR8/../AVR8/Endpoint_AVR8.h **** 				#else
 581               		.loc 2 456 0
 582 003e 8091 E800 		lds r24,232
 583 0042 8E77      		andi r24,lo8(126)
 584 0044 8093 E800 		sts 232,r24
 585               	.LVL59:
 586               	.L51:
 587               	/* epilogue start */
 588               	.LBE229:
 589               	.LBE228:
 481:../../tmk_core/protocol/lufa/lufa.c **** 
 590               		.loc 1 481 0
 591 0048 0895      		ret
 592               		.cfi_endproc
 593               	.LFE119:
 595               		.section	.text.send_keyboard,"ax",@progbits
 597               	send_keyboard:
 598               	.LFB118:
 421:../../tmk_core/protocol/lufa/lufa.c ****     uint8_t timeout = 255;
 599               		.loc 1 421 0
 600               		.cfi_startproc
 601               	.LVL60:
 602 0000 CF93      		push r28
 603               	.LCFI8:
 604               		.cfi_def_cfa_offset 3
 605               		.cfi_offset 28, -2
 606 0002 DF93      		push r29
 607               	.LCFI9:
 608               		.cfi_def_cfa_offset 4
 609               		.cfi_offset 29, -3
 610               	/* prologue: function */
 611               	/* frame size = 0 */
 612               	/* stack size = 2 */
 613               	.L__stack_usage = 2
 614 0004 EC01      		movw r28,r24
 615               	.LVL61:
 424:../../tmk_core/protocol/lufa/lufa.c ****         return;
 616               		.loc 1 424 0
 617 0006 8091 0000 		lds r24,USB_DeviceState
 618               	.LVL62:
 619 000a 8430      		cpi r24,lo8(4)
 620 000c 01F4      		brne .L64
 621               	.LVL63:
 622               	.LBB230:
 623               	.LBB231:
 270:../../tmk_core/protocol/lufa/LUFA-git/LUFA/Drivers/USB/Core/AVR8/../AVR8/Endpoint_AVR8.h **** 				#endif
 624               		.loc 2 270 0
 625 000e 81E0      		ldi r24,lo8(1)
 626 0010 8093 E900 		sts 233,r24
 627               	.LVL64:
 628 0014 8FEF      		ldi r24,lo8(-1)
 629               	.LVL65:
 630               	.L67:
 631               	.LBE231:
 632               	.LBE230:
 633               	.LBB232:
 634               	.LBB233:
 360:../../tmk_core/protocol/lufa/LUFA-git/LUFA/Drivers/USB/Core/AVR8/../AVR8/Endpoint_AVR8.h **** 			}
 635               		.loc 2 360 0
 636 0016 9091 E800 		lds r25,232
 637 001a 8150      		subi r24,lo8(-(-1))
 638               	.LVL66:
 639               	.LBE233:
 640               	.LBE232:
 447:../../tmk_core/protocol/lufa/lufa.c ****         if (!Endpoint_IsReadWriteAllowed()) return;
 641               		.loc 1 447 0
 642 001c 95FD      		sbrc r25,5
 643 001e 00C0      		rjmp .L68
 644               	.LVL67:
 645               	.LBB234:
 646               	.LBB235:
 647               		.loc 3 276 0
 648 0020 95ED      		ldi r25,lo8(-43)
 649 0022 9A95      	1:	dec r25
 650 0024 01F4      		brne 1b
 651 0026 0000      		nop
 652               	.LVL68:
 653               	.LBE235:
 654               	.LBE234:
 447:../../tmk_core/protocol/lufa/lufa.c ****         if (!Endpoint_IsReadWriteAllowed()) return;
 655               		.loc 1 447 0
 656 0028 8111      		cpse r24,__zero_reg__
 657 002a 00C0      		rjmp .L67
 658               	.LVL69:
 659               	.L68:
 660               	.LBB236:
 661               	.LBB237:
 360:../../tmk_core/protocol/lufa/LUFA-git/LUFA/Drivers/USB/Core/AVR8/../AVR8/Endpoint_AVR8.h **** 			}
 662               		.loc 2 360 0
 663 002c 8091 E800 		lds r24,232
 664               	.LBE237:
 665               	.LBE236:
 448:../../tmk_core/protocol/lufa/lufa.c **** 
 666               		.loc 1 448 0
 667 0030 85FF      		sbrs r24,5
 668 0032 00C0      		rjmp .L64
 451:../../tmk_core/protocol/lufa/lufa.c ****     }
 669               		.loc 1 451 0
 670 0034 50E0      		ldi r21,0
 671 0036 40E0      		ldi r20,0
 672 0038 68E0      		ldi r22,lo8(8)
 673 003a 70E0      		ldi r23,0
 674 003c CE01      		movw r24,r28
 675 003e 0E94 0000 		call Endpoint_Write_Stream_LE
 676               	.LVL70:
 677               	.LBB238:
 678               	.LBB239:
 456:../../tmk_core/protocol/lufa/LUFA-git/LUFA/Drivers/USB/Core/AVR8/../AVR8/Endpoint_AVR8.h **** 				#else
 679               		.loc 2 456 0
 680 0042 8091 E800 		lds r24,232
 681 0046 8E77      		andi r24,lo8(126)
 682 0048 8093 E800 		sts 232,r24
 683               	.LBE239:
 684               	.LBE238:
 457:../../tmk_core/protocol/lufa/lufa.c **** }
 685               		.loc 1 457 0
 686 004c 88E0      		ldi r24,lo8(8)
 687 004e FE01      		movw r30,r28
 688 0050 A0E0      		ldi r26,lo8(keyboard_report_sent)
 689 0052 B0E0      		ldi r27,hi8(keyboard_report_sent)
 690               		0:
 691 0054 0190      		ld r0,Z+
 692 0056 0D92      		st X+,r0
 693 0058 8A95      		dec r24
 694 005a 01F4      		brne 0b
 695               	.LVL71:
 696               	.L64:
 697               	/* epilogue start */
 458:../../tmk_core/protocol/lufa/lufa.c **** 
 698               		.loc 1 458 0
 699 005c DF91      		pop r29
 700 005e CF91      		pop r28
 701               	.LVL72:
 702 0060 0895      		ret
 703               		.cfi_endproc
 704               	.LFE118:
 706               		.section	.text.EVENT_USB_Device_Connect,"ax",@progbits
 707               	.global	EVENT_USB_Device_Connect
 709               	EVENT_USB_Device_Connect:
 710               	.LFB109:
 161:../../tmk_core/protocol/lufa/lufa.c ****     print("[C]");
 711               		.loc 1 161 0
 712               		.cfi_startproc
 713               	/* prologue: function */
 714               	/* frame size = 0 */
 715               	/* stack size = 0 */
 716               	.L__stack_usage = 0
 162:../../tmk_core/protocol/lufa/lufa.c ****     /* For battery powered device */
 717               		.loc 1 162 0
 718 0000 80E0      		ldi r24,lo8(__c.4814)
 719 0002 90E0      		ldi r25,hi8(__c.4814)
 720 0004 0E94 0000 		call xputs
 721               	.LVL73:
 164:../../tmk_core/protocol/lufa/lufa.c ****         USB_Disable();
 722               		.loc 1 164 0
 723 0008 8091 0000 		lds r24,USB_IsInitialized
 724 000c 8111      		cpse r24,__zero_reg__
 725 000e 00C0      		rjmp .L77
 165:../../tmk_core/protocol/lufa/lufa.c ****         USB_Init();
 726               		.loc 1 165 0
 727 0010 0E94 0000 		call USB_Disable
 728               	.LVL74:
 166:../../tmk_core/protocol/lufa/lufa.c ****         USB_Device_EnableSOFEvents();
 729               		.loc 1 166 0
 730 0014 0E94 0000 		call USB_Init
 731               	.LVL75:
 732               	.LBB240:
 733               	.LBB241:
 734               	.LBB242:
 735               		.file 4 "../../tmk_core/protocol/lufa/LUFA-git/LUFA/Drivers/USB/Core/AVR8/../AVR8/USBInterrupt_AVR
   1:../../tmk_core/protocol/lufa/LUFA-git/LUFA/Drivers/USB/Core/AVR8/../AVR8/USBInterrupt_AVR8.h **** /*
   2:../../tmk_core/protocol/lufa/LUFA-git/LUFA/Drivers/USB/Core/AVR8/../AVR8/USBInterrupt_AVR8.h ****              LUFA Library
   3:../../tmk_core/protocol/lufa/LUFA-git/LUFA/Drivers/USB/Core/AVR8/../AVR8/USBInterrupt_AVR8.h ****      Copyright (C) Dean Camera, 2014.
   4:../../tmk_core/protocol/lufa/LUFA-git/LUFA/Drivers/USB/Core/AVR8/../AVR8/USBInterrupt_AVR8.h **** 
   5:../../tmk_core/protocol/lufa/LUFA-git/LUFA/Drivers/USB/Core/AVR8/../AVR8/USBInterrupt_AVR8.h ****   dean [at] fourwalledcubicle [dot] com
   6:../../tmk_core/protocol/lufa/LUFA-git/LUFA/Drivers/USB/Core/AVR8/../AVR8/USBInterrupt_AVR8.h ****            www.lufa-lib.org
   7:../../tmk_core/protocol/lufa/LUFA-git/LUFA/Drivers/USB/Core/AVR8/../AVR8/USBInterrupt_AVR8.h **** */
   8:../../tmk_core/protocol/lufa/LUFA-git/LUFA/Drivers/USB/Core/AVR8/../AVR8/USBInterrupt_AVR8.h **** 
   9:../../tmk_core/protocol/lufa/LUFA-git/LUFA/Drivers/USB/Core/AVR8/../AVR8/USBInterrupt_AVR8.h **** /*
  10:../../tmk_core/protocol/lufa/LUFA-git/LUFA/Drivers/USB/Core/AVR8/../AVR8/USBInterrupt_AVR8.h ****   Copyright 2014  Dean Camera (dean [at] fourwalledcubicle [dot] com)
  11:../../tmk_core/protocol/lufa/LUFA-git/LUFA/Drivers/USB/Core/AVR8/../AVR8/USBInterrupt_AVR8.h **** 
  12:../../tmk_core/protocol/lufa/LUFA-git/LUFA/Drivers/USB/Core/AVR8/../AVR8/USBInterrupt_AVR8.h ****   Permission to use, copy, modify, distribute, and sell this
  13:../../tmk_core/protocol/lufa/LUFA-git/LUFA/Drivers/USB/Core/AVR8/../AVR8/USBInterrupt_AVR8.h ****   software and its documentation for any purpose is hereby granted
  14:../../tmk_core/protocol/lufa/LUFA-git/LUFA/Drivers/USB/Core/AVR8/../AVR8/USBInterrupt_AVR8.h ****   without fee, provided that the above copyright notice appear in
  15:../../tmk_core/protocol/lufa/LUFA-git/LUFA/Drivers/USB/Core/AVR8/../AVR8/USBInterrupt_AVR8.h ****   all copies and that both that the copyright notice and this
  16:../../tmk_core/protocol/lufa/LUFA-git/LUFA/Drivers/USB/Core/AVR8/../AVR8/USBInterrupt_AVR8.h ****   permission notice and warranty disclaimer appear in supporting
  17:../../tmk_core/protocol/lufa/LUFA-git/LUFA/Drivers/USB/Core/AVR8/../AVR8/USBInterrupt_AVR8.h ****   documentation, and that the name of the author not be used in
  18:../../tmk_core/protocol/lufa/LUFA-git/LUFA/Drivers/USB/Core/AVR8/../AVR8/USBInterrupt_AVR8.h ****   advertising or publicity pertaining to distribution of the
  19:../../tmk_core/protocol/lufa/LUFA-git/LUFA/Drivers/USB/Core/AVR8/../AVR8/USBInterrupt_AVR8.h ****   software without specific, written prior permission.
  20:../../tmk_core/protocol/lufa/LUFA-git/LUFA/Drivers/USB/Core/AVR8/../AVR8/USBInterrupt_AVR8.h **** 
  21:../../tmk_core/protocol/lufa/LUFA-git/LUFA/Drivers/USB/Core/AVR8/../AVR8/USBInterrupt_AVR8.h ****   The author disclaims all warranties with regard to this
  22:../../tmk_core/protocol/lufa/LUFA-git/LUFA/Drivers/USB/Core/AVR8/../AVR8/USBInterrupt_AVR8.h ****   software, including all implied warranties of merchantability
  23:../../tmk_core/protocol/lufa/LUFA-git/LUFA/Drivers/USB/Core/AVR8/../AVR8/USBInterrupt_AVR8.h ****   and fitness.  In no event shall the author be liable for any
  24:../../tmk_core/protocol/lufa/LUFA-git/LUFA/Drivers/USB/Core/AVR8/../AVR8/USBInterrupt_AVR8.h ****   special, indirect or consequential damages or any damages
  25:../../tmk_core/protocol/lufa/LUFA-git/LUFA/Drivers/USB/Core/AVR8/../AVR8/USBInterrupt_AVR8.h ****   whatsoever resulting from loss of use, data or profits, whether
  26:../../tmk_core/protocol/lufa/LUFA-git/LUFA/Drivers/USB/Core/AVR8/../AVR8/USBInterrupt_AVR8.h ****   in an action of contract, negligence or other tortious action,
  27:../../tmk_core/protocol/lufa/LUFA-git/LUFA/Drivers/USB/Core/AVR8/../AVR8/USBInterrupt_AVR8.h ****   arising out of or in connection with the use or performance of
  28:../../tmk_core/protocol/lufa/LUFA-git/LUFA/Drivers/USB/Core/AVR8/../AVR8/USBInterrupt_AVR8.h ****   this software.
  29:../../tmk_core/protocol/lufa/LUFA-git/LUFA/Drivers/USB/Core/AVR8/../AVR8/USBInterrupt_AVR8.h **** */
  30:../../tmk_core/protocol/lufa/LUFA-git/LUFA/Drivers/USB/Core/AVR8/../AVR8/USBInterrupt_AVR8.h **** 
  31:../../tmk_core/protocol/lufa/LUFA-git/LUFA/Drivers/USB/Core/AVR8/../AVR8/USBInterrupt_AVR8.h **** /** \file
  32:../../tmk_core/protocol/lufa/LUFA-git/LUFA/Drivers/USB/Core/AVR8/../AVR8/USBInterrupt_AVR8.h ****  *  \brief USB Controller Interrupt definitions for the AVR8 microcontrollers.
  33:../../tmk_core/protocol/lufa/LUFA-git/LUFA/Drivers/USB/Core/AVR8/../AVR8/USBInterrupt_AVR8.h ****  *
  34:../../tmk_core/protocol/lufa/LUFA-git/LUFA/Drivers/USB/Core/AVR8/../AVR8/USBInterrupt_AVR8.h ****  *  This file contains definitions required for the correct handling of low level USB service routi
  35:../../tmk_core/protocol/lufa/LUFA-git/LUFA/Drivers/USB/Core/AVR8/../AVR8/USBInterrupt_AVR8.h ****  *  from the USB controller.
  36:../../tmk_core/protocol/lufa/LUFA-git/LUFA/Drivers/USB/Core/AVR8/../AVR8/USBInterrupt_AVR8.h ****  *
  37:../../tmk_core/protocol/lufa/LUFA-git/LUFA/Drivers/USB/Core/AVR8/../AVR8/USBInterrupt_AVR8.h ****  *  \note This file should not be included directly. It is automatically included as needed by the 
  38:../../tmk_core/protocol/lufa/LUFA-git/LUFA/Drivers/USB/Core/AVR8/../AVR8/USBInterrupt_AVR8.h ****  *        dispatch header located in LUFA/Drivers/USB/USB.h.
  39:../../tmk_core/protocol/lufa/LUFA-git/LUFA/Drivers/USB/Core/AVR8/../AVR8/USBInterrupt_AVR8.h ****  */
  40:../../tmk_core/protocol/lufa/LUFA-git/LUFA/Drivers/USB/Core/AVR8/../AVR8/USBInterrupt_AVR8.h **** 
  41:../../tmk_core/protocol/lufa/LUFA-git/LUFA/Drivers/USB/Core/AVR8/../AVR8/USBInterrupt_AVR8.h **** #ifndef __USBINTERRUPT_AVR8_H__
  42:../../tmk_core/protocol/lufa/LUFA-git/LUFA/Drivers/USB/Core/AVR8/../AVR8/USBInterrupt_AVR8.h **** #define __USBINTERRUPT_AVR8_H__
  43:../../tmk_core/protocol/lufa/LUFA-git/LUFA/Drivers/USB/Core/AVR8/../AVR8/USBInterrupt_AVR8.h **** 
  44:../../tmk_core/protocol/lufa/LUFA-git/LUFA/Drivers/USB/Core/AVR8/../AVR8/USBInterrupt_AVR8.h **** 	/* Includes: */
  45:../../tmk_core/protocol/lufa/LUFA-git/LUFA/Drivers/USB/Core/AVR8/../AVR8/USBInterrupt_AVR8.h **** 		#include "../../../../Common/Common.h"
  46:../../tmk_core/protocol/lufa/LUFA-git/LUFA/Drivers/USB/Core/AVR8/../AVR8/USBInterrupt_AVR8.h **** 
  47:../../tmk_core/protocol/lufa/LUFA-git/LUFA/Drivers/USB/Core/AVR8/../AVR8/USBInterrupt_AVR8.h **** 	/* Enable C linkage for C++ Compilers: */
  48:../../tmk_core/protocol/lufa/LUFA-git/LUFA/Drivers/USB/Core/AVR8/../AVR8/USBInterrupt_AVR8.h **** 		#if defined(__cplusplus)
  49:../../tmk_core/protocol/lufa/LUFA-git/LUFA/Drivers/USB/Core/AVR8/../AVR8/USBInterrupt_AVR8.h **** 			extern "C" {
  50:../../tmk_core/protocol/lufa/LUFA-git/LUFA/Drivers/USB/Core/AVR8/../AVR8/USBInterrupt_AVR8.h **** 		#endif
  51:../../tmk_core/protocol/lufa/LUFA-git/LUFA/Drivers/USB/Core/AVR8/../AVR8/USBInterrupt_AVR8.h **** 
  52:../../tmk_core/protocol/lufa/LUFA-git/LUFA/Drivers/USB/Core/AVR8/../AVR8/USBInterrupt_AVR8.h **** 	/* Preprocessor Checks: */
  53:../../tmk_core/protocol/lufa/LUFA-git/LUFA/Drivers/USB/Core/AVR8/../AVR8/USBInterrupt_AVR8.h **** 		#if !defined(__INCLUDE_FROM_USB_DRIVER)
  54:../../tmk_core/protocol/lufa/LUFA-git/LUFA/Drivers/USB/Core/AVR8/../AVR8/USBInterrupt_AVR8.h **** 			#error Do not include this file directly. Include LUFA/Drivers/USB/USB.h instead.
  55:../../tmk_core/protocol/lufa/LUFA-git/LUFA/Drivers/USB/Core/AVR8/../AVR8/USBInterrupt_AVR8.h **** 		#endif
  56:../../tmk_core/protocol/lufa/LUFA-git/LUFA/Drivers/USB/Core/AVR8/../AVR8/USBInterrupt_AVR8.h **** 
  57:../../tmk_core/protocol/lufa/LUFA-git/LUFA/Drivers/USB/Core/AVR8/../AVR8/USBInterrupt_AVR8.h **** 	/* Private Interface - For use in library only: */
  58:../../tmk_core/protocol/lufa/LUFA-git/LUFA/Drivers/USB/Core/AVR8/../AVR8/USBInterrupt_AVR8.h **** 	#if !defined(__DOXYGEN__)
  59:../../tmk_core/protocol/lufa/LUFA-git/LUFA/Drivers/USB/Core/AVR8/../AVR8/USBInterrupt_AVR8.h **** 		/* Enums: */
  60:../../tmk_core/protocol/lufa/LUFA-git/LUFA/Drivers/USB/Core/AVR8/../AVR8/USBInterrupt_AVR8.h **** 			enum USB_Interrupts_t
  61:../../tmk_core/protocol/lufa/LUFA-git/LUFA/Drivers/USB/Core/AVR8/../AVR8/USBInterrupt_AVR8.h **** 			{
  62:../../tmk_core/protocol/lufa/LUFA-git/LUFA/Drivers/USB/Core/AVR8/../AVR8/USBInterrupt_AVR8.h **** 				#if (defined(USB_SERIES_4_AVR) || defined(USB_SERIES_6_AVR) || defined(USB_SERIES_7_AVR) || def
  63:../../tmk_core/protocol/lufa/LUFA-git/LUFA/Drivers/USB/Core/AVR8/../AVR8/USBInterrupt_AVR8.h **** 				USB_INT_VBUSTI  = 0,
  64:../../tmk_core/protocol/lufa/LUFA-git/LUFA/Drivers/USB/Core/AVR8/../AVR8/USBInterrupt_AVR8.h **** 				#endif
  65:../../tmk_core/protocol/lufa/LUFA-git/LUFA/Drivers/USB/Core/AVR8/../AVR8/USBInterrupt_AVR8.h **** 				#if (defined(USB_CAN_BE_BOTH) || defined(__DOXYGEN__))
  66:../../tmk_core/protocol/lufa/LUFA-git/LUFA/Drivers/USB/Core/AVR8/../AVR8/USBInterrupt_AVR8.h **** 				USB_INT_IDTI    = 1,
  67:../../tmk_core/protocol/lufa/LUFA-git/LUFA/Drivers/USB/Core/AVR8/../AVR8/USBInterrupt_AVR8.h **** 				#endif
  68:../../tmk_core/protocol/lufa/LUFA-git/LUFA/Drivers/USB/Core/AVR8/../AVR8/USBInterrupt_AVR8.h **** 				#if (defined(USB_CAN_BE_DEVICE) || defined(__DOXYGEN__))
  69:../../tmk_core/protocol/lufa/LUFA-git/LUFA/Drivers/USB/Core/AVR8/../AVR8/USBInterrupt_AVR8.h **** 				USB_INT_WAKEUPI = 2,
  70:../../tmk_core/protocol/lufa/LUFA-git/LUFA/Drivers/USB/Core/AVR8/../AVR8/USBInterrupt_AVR8.h **** 				USB_INT_SUSPI   = 3,
  71:../../tmk_core/protocol/lufa/LUFA-git/LUFA/Drivers/USB/Core/AVR8/../AVR8/USBInterrupt_AVR8.h **** 				USB_INT_EORSTI  = 4,
  72:../../tmk_core/protocol/lufa/LUFA-git/LUFA/Drivers/USB/Core/AVR8/../AVR8/USBInterrupt_AVR8.h **** 				USB_INT_SOFI    = 5,
  73:../../tmk_core/protocol/lufa/LUFA-git/LUFA/Drivers/USB/Core/AVR8/../AVR8/USBInterrupt_AVR8.h **** 				USB_INT_RXSTPI  = 6,
  74:../../tmk_core/protocol/lufa/LUFA-git/LUFA/Drivers/USB/Core/AVR8/../AVR8/USBInterrupt_AVR8.h **** 				#endif
  75:../../tmk_core/protocol/lufa/LUFA-git/LUFA/Drivers/USB/Core/AVR8/../AVR8/USBInterrupt_AVR8.h **** 				#if (defined(USB_CAN_BE_HOST) || defined(__DOXYGEN__))
  76:../../tmk_core/protocol/lufa/LUFA-git/LUFA/Drivers/USB/Core/AVR8/../AVR8/USBInterrupt_AVR8.h **** 				USB_INT_HSOFI   = 7,
  77:../../tmk_core/protocol/lufa/LUFA-git/LUFA/Drivers/USB/Core/AVR8/../AVR8/USBInterrupt_AVR8.h **** 				USB_INT_DCONNI  = 8,
  78:../../tmk_core/protocol/lufa/LUFA-git/LUFA/Drivers/USB/Core/AVR8/../AVR8/USBInterrupt_AVR8.h **** 				USB_INT_DDISCI  = 9,
  79:../../tmk_core/protocol/lufa/LUFA-git/LUFA/Drivers/USB/Core/AVR8/../AVR8/USBInterrupt_AVR8.h **** 				USB_INT_RSTI    = 10,
  80:../../tmk_core/protocol/lufa/LUFA-git/LUFA/Drivers/USB/Core/AVR8/../AVR8/USBInterrupt_AVR8.h **** 				USB_INT_BCERRI  = 11,
  81:../../tmk_core/protocol/lufa/LUFA-git/LUFA/Drivers/USB/Core/AVR8/../AVR8/USBInterrupt_AVR8.h **** 				USB_INT_VBERRI  = 12,
  82:../../tmk_core/protocol/lufa/LUFA-git/LUFA/Drivers/USB/Core/AVR8/../AVR8/USBInterrupt_AVR8.h **** 				USB_INT_SRPI    = 13,
  83:../../tmk_core/protocol/lufa/LUFA-git/LUFA/Drivers/USB/Core/AVR8/../AVR8/USBInterrupt_AVR8.h **** 				#endif
  84:../../tmk_core/protocol/lufa/LUFA-git/LUFA/Drivers/USB/Core/AVR8/../AVR8/USBInterrupt_AVR8.h **** 			};
  85:../../tmk_core/protocol/lufa/LUFA-git/LUFA/Drivers/USB/Core/AVR8/../AVR8/USBInterrupt_AVR8.h **** 
  86:../../tmk_core/protocol/lufa/LUFA-git/LUFA/Drivers/USB/Core/AVR8/../AVR8/USBInterrupt_AVR8.h **** 		/* Inline Functions: */
  87:../../tmk_core/protocol/lufa/LUFA-git/LUFA/Drivers/USB/Core/AVR8/../AVR8/USBInterrupt_AVR8.h **** 			static inline void USB_INT_Enable(const uint8_t Interrupt) ATTR_ALWAYS_INLINE;
  88:../../tmk_core/protocol/lufa/LUFA-git/LUFA/Drivers/USB/Core/AVR8/../AVR8/USBInterrupt_AVR8.h **** 			static inline void USB_INT_Enable(const uint8_t Interrupt)
  89:../../tmk_core/protocol/lufa/LUFA-git/LUFA/Drivers/USB/Core/AVR8/../AVR8/USBInterrupt_AVR8.h **** 			{
  90:../../tmk_core/protocol/lufa/LUFA-git/LUFA/Drivers/USB/Core/AVR8/../AVR8/USBInterrupt_AVR8.h **** 				switch (Interrupt)
  91:../../tmk_core/protocol/lufa/LUFA-git/LUFA/Drivers/USB/Core/AVR8/../AVR8/USBInterrupt_AVR8.h **** 				{
  92:../../tmk_core/protocol/lufa/LUFA-git/LUFA/Drivers/USB/Core/AVR8/../AVR8/USBInterrupt_AVR8.h **** 					#if (defined(USB_SERIES_4_AVR) || defined(USB_SERIES_6_AVR) || defined(USB_SERIES_7_AVR))
  93:../../tmk_core/protocol/lufa/LUFA-git/LUFA/Drivers/USB/Core/AVR8/../AVR8/USBInterrupt_AVR8.h **** 					case USB_INT_VBUSTI:
  94:../../tmk_core/protocol/lufa/LUFA-git/LUFA/Drivers/USB/Core/AVR8/../AVR8/USBInterrupt_AVR8.h **** 						USBCON |= (1 << VBUSTE);
  95:../../tmk_core/protocol/lufa/LUFA-git/LUFA/Drivers/USB/Core/AVR8/../AVR8/USBInterrupt_AVR8.h **** 						break;
  96:../../tmk_core/protocol/lufa/LUFA-git/LUFA/Drivers/USB/Core/AVR8/../AVR8/USBInterrupt_AVR8.h **** 					#endif
  97:../../tmk_core/protocol/lufa/LUFA-git/LUFA/Drivers/USB/Core/AVR8/../AVR8/USBInterrupt_AVR8.h **** 					#if defined(USB_CAN_BE_BOTH)
  98:../../tmk_core/protocol/lufa/LUFA-git/LUFA/Drivers/USB/Core/AVR8/../AVR8/USBInterrupt_AVR8.h **** 					case USB_INT_IDTI:
  99:../../tmk_core/protocol/lufa/LUFA-git/LUFA/Drivers/USB/Core/AVR8/../AVR8/USBInterrupt_AVR8.h **** 						USBCON |= (1 << IDTE);
 100:../../tmk_core/protocol/lufa/LUFA-git/LUFA/Drivers/USB/Core/AVR8/../AVR8/USBInterrupt_AVR8.h **** 						break;
 101:../../tmk_core/protocol/lufa/LUFA-git/LUFA/Drivers/USB/Core/AVR8/../AVR8/USBInterrupt_AVR8.h **** 					#endif
 102:../../tmk_core/protocol/lufa/LUFA-git/LUFA/Drivers/USB/Core/AVR8/../AVR8/USBInterrupt_AVR8.h **** 					#if defined(USB_CAN_BE_DEVICE)
 103:../../tmk_core/protocol/lufa/LUFA-git/LUFA/Drivers/USB/Core/AVR8/../AVR8/USBInterrupt_AVR8.h **** 					case USB_INT_WAKEUPI:
 104:../../tmk_core/protocol/lufa/LUFA-git/LUFA/Drivers/USB/Core/AVR8/../AVR8/USBInterrupt_AVR8.h **** 						UDIEN  |= (1 << WAKEUPE);
 105:../../tmk_core/protocol/lufa/LUFA-git/LUFA/Drivers/USB/Core/AVR8/../AVR8/USBInterrupt_AVR8.h **** 						break;
 106:../../tmk_core/protocol/lufa/LUFA-git/LUFA/Drivers/USB/Core/AVR8/../AVR8/USBInterrupt_AVR8.h **** 					case USB_INT_SUSPI:
 107:../../tmk_core/protocol/lufa/LUFA-git/LUFA/Drivers/USB/Core/AVR8/../AVR8/USBInterrupt_AVR8.h **** 						UDIEN  |= (1 << SUSPE);
 108:../../tmk_core/protocol/lufa/LUFA-git/LUFA/Drivers/USB/Core/AVR8/../AVR8/USBInterrupt_AVR8.h **** 						break;
 109:../../tmk_core/protocol/lufa/LUFA-git/LUFA/Drivers/USB/Core/AVR8/../AVR8/USBInterrupt_AVR8.h **** 					case USB_INT_EORSTI:
 110:../../tmk_core/protocol/lufa/LUFA-git/LUFA/Drivers/USB/Core/AVR8/../AVR8/USBInterrupt_AVR8.h **** 						UDIEN  |= (1 << EORSTE);
 111:../../tmk_core/protocol/lufa/LUFA-git/LUFA/Drivers/USB/Core/AVR8/../AVR8/USBInterrupt_AVR8.h **** 						break;
 112:../../tmk_core/protocol/lufa/LUFA-git/LUFA/Drivers/USB/Core/AVR8/../AVR8/USBInterrupt_AVR8.h **** 					case USB_INT_SOFI:
 113:../../tmk_core/protocol/lufa/LUFA-git/LUFA/Drivers/USB/Core/AVR8/../AVR8/USBInterrupt_AVR8.h **** 						UDIEN  |= (1 << SOFE);
 736               		.loc 4 113 0
 737 0018 8091 E200 		lds r24,226
 738 001c 8460      		ori r24,lo8(4)
 739 001e 8093 E200 		sts 226,r24
 740               	.LVL76:
 741               	.L77:
 742               	/* epilogue start */
 743               	.LBE242:
 744               	.LBE241:
 745               	.LBE240:
 169:../../tmk_core/protocol/lufa/lufa.c **** 
 746               		.loc 1 169 0
 747 0022 0895      		ret
 748               		.cfi_endproc
 749               	.LFE109:
 751               		.section	.text.EVENT_USB_Device_Disconnect,"ax",@progbits
 752               	.global	EVENT_USB_Device_Disconnect
 754               	EVENT_USB_Device_Disconnect:
 755               	.LFB110:
 172:../../tmk_core/protocol/lufa/lufa.c ****     print("[D]");
 756               		.loc 1 172 0
 757               		.cfi_startproc
 758               	/* prologue: function */
 759               	/* frame size = 0 */
 760               	/* stack size = 0 */
 761               	.L__stack_usage = 0
 173:../../tmk_core/protocol/lufa/lufa.c ****     /* For battery powered device */
 762               		.loc 1 173 0
 763 0000 80E0      		ldi r24,lo8(__c.4819)
 764 0002 90E0      		ldi r25,hi8(__c.4819)
 765 0004 0E94 0000 		call xputs
 766               	.LVL77:
 175:../../tmk_core/protocol/lufa/lufa.c **** /* TODO: This doesn't work. After several plug in/outs can not be enumerated.
 767               		.loc 1 175 0
 768 0008 1092 0000 		sts USB_IsInitialized,__zero_reg__
 769               	/* epilogue start */
 183:../../tmk_core/protocol/lufa/lufa.c **** 
 770               		.loc 1 183 0
 771 000c 0895      		ret
 772               		.cfi_endproc
 773               	.LFE110:
 775               		.section	.text.EVENT_USB_Device_Reset,"ax",@progbits
 776               	.global	EVENT_USB_Device_Reset
 778               	EVENT_USB_Device_Reset:
 779               	.LFB111:
 186:../../tmk_core/protocol/lufa/lufa.c **** #ifdef LUFA_DEBUG
 780               		.loc 1 186 0
 781               		.cfi_startproc
 782               	/* prologue: function */
 783               	/* frame size = 0 */
 784               	/* stack size = 0 */
 785               	.L__stack_usage = 0
 786               	/* epilogue start */
 190:../../tmk_core/protocol/lufa/lufa.c **** 
 787               		.loc 1 190 0
 788 0000 0895      		ret
 789               		.cfi_endproc
 790               	.LFE111:
 792               		.section	.text.EVENT_USB_Device_StartOfFrame,"ax",@progbits
 793               	.global	EVENT_USB_Device_StartOfFrame
 795               	EVENT_USB_Device_StartOfFrame:
 796               	.LFB114:
 216:../../tmk_core/protocol/lufa/lufa.c ****     static uint8_t count;
 797               		.loc 1 216 0
 798               		.cfi_startproc
 799               	/* prologue: function */
 800               	/* frame size = 0 */
 801               	/* stack size = 0 */
 802               	.L__stack_usage = 0
 218:../../tmk_core/protocol/lufa/lufa.c ****     count = 0;
 803               		.loc 1 218 0
 804 0000 2091 0000 		lds r18,count.4832
 805 0004 2F5F      		subi r18,lo8(-(1))
 806 0006 822F      		mov r24,r18
 807 0008 62E3      		ldi r22,lo8(50)
 808 000a 0E94 0000 		call __udivmodqi4
 809 000e 9923      		tst r25
 810 0010 01F0      		breq .L82
 811 0012 2093 0000 		sts count.4832,r18
 812 0016 0895      		ret
 813               	.L82:
 219:../../tmk_core/protocol/lufa/lufa.c **** 
 814               		.loc 1 219 0
 815 0018 1092 0000 		sts count.4832,__zero_reg__
 221:../../tmk_core/protocol/lufa/lufa.c ****     Console_Task();
 816               		.loc 1 221 0
 817 001c 8091 0000 		lds r24,console_flush
 818 0020 8823      		tst r24
 819 0022 01F0      		breq .L81
 820               	.LBB267:
 821               	.LBB268:
  95:../../tmk_core/protocol/lufa/lufa.c ****         return;
 822               		.loc 1 95 0
 823 0024 8091 0000 		lds r24,USB_DeviceState
 824 0028 8430      		cpi r24,lo8(4)
 825 002a 01F4      		brne .L85
 826               	.LBB269:
 827               	.LBB270:
 253:../../tmk_core/protocol/lufa/LUFA-git/LUFA/Drivers/USB/Core/AVR8/../AVR8/Endpoint_AVR8.h **** 				#else
 828               		.loc 2 253 0
 829 002c 9091 E900 		lds r25,233
 830 0030 9F70      		andi r25,lo8(15)
 831               	.LBB271:
 832               	.LBB272:
 240:../../tmk_core/protocol/lufa/LUFA-git/LUFA/Drivers/USB/Core/AVR8/../AVR8/Endpoint_AVR8.h **** 			}
 833               		.loc 2 240 0
 834 0032 8091 EC00 		lds r24,236
 835 0036 80FD      		sbrc r24,0
 836 0038 00C0      		rjmp .L91
 837 003a 80E0      		ldi r24,0
 838               	.L86:
 839               	.LBE272:
 840               	.LBE271:
 253:../../tmk_core/protocol/lufa/LUFA-git/LUFA/Drivers/USB/Core/AVR8/../AVR8/Endpoint_AVR8.h **** 				#else
 841               		.loc 2 253 0
 842 003c 892B      		or r24,r25
 843               	.LVL78:
 844               	.LBE270:
 845               	.LBE269:
 846               	.LBB276:
 847               	.LBB277:
 270:../../tmk_core/protocol/lufa/LUFA-git/LUFA/Drivers/USB/Core/AVR8/../AVR8/Endpoint_AVR8.h **** 				#endif
 848               		.loc 2 270 0
 849 003e 94E0      		ldi r25,lo8(4)
 850 0040 9093 E900 		sts 233,r25
 851               	.LVL79:
 852               	.LBE277:
 853               	.LBE276:
 854               	.LBB278:
 855               	.LBB279:
 313:../../tmk_core/protocol/lufa/LUFA-git/LUFA/Drivers/USB/Core/AVR8/../AVR8/Endpoint_AVR8.h **** 			}
 856               		.loc 2 313 0
 857 0044 9091 EB00 		lds r25,235
 858               	.LBE279:
 859               	.LBE278:
 127:../../tmk_core/protocol/lufa/lufa.c ****         Endpoint_SelectEndpoint(ep);
 860               		.loc 1 127 0
 861 0048 90FF      		sbrs r25,0
 862 004a 00C0      		rjmp .L90
 863               	.LBB280:
 864               	.LBB281:
 370:../../tmk_core/protocol/lufa/LUFA-git/LUFA/Drivers/USB/Core/AVR8/../AVR8/Endpoint_AVR8.h **** 			}
 865               		.loc 2 370 0
 866 004c 9091 EE00 		lds r25,238
 867               	.LBE281:
 868               	.LBE280:
 127:../../tmk_core/protocol/lufa/lufa.c ****         Endpoint_SelectEndpoint(ep);
 869               		.loc 1 127 0
 870 0050 97FD      		sbrc r25,7
 871 0052 00C0      		rjmp .L88
 872               	.L90:
 873               	.LVL80:
 874               	.LBB282:
 875               	.LBB283:
 270:../../tmk_core/protocol/lufa/LUFA-git/LUFA/Drivers/USB/Core/AVR8/../AVR8/Endpoint_AVR8.h **** 				#endif
 876               		.loc 2 270 0
 877 0054 8F70      		andi r24,lo8(15)
 878               	.LVL81:
 879 0056 8093 E900 		sts 233,r24
 880               	.L85:
 881               	.LBE283:
 882               	.LBE282:
 883               	.LBE268:
 884               	.LBE267:
 223:../../tmk_core/protocol/lufa/lufa.c **** }
 885               		.loc 1 223 0
 886 005a 1092 0000 		sts console_flush,__zero_reg__
 887               	.L81:
 888               	/* epilogue start */
 224:../../tmk_core/protocol/lufa/lufa.c **** #endif
 889               		.loc 1 224 0
 890 005e 0895      		ret
 891               	.L91:
 892               	.LBB294:
 893               	.LBB293:
 894               	.LBB284:
 895               	.LBB275:
 896               	.LBB274:
 897               	.LBB273:
 240:../../tmk_core/protocol/lufa/LUFA-git/LUFA/Drivers/USB/Core/AVR8/../AVR8/Endpoint_AVR8.h **** 			}
 898               		.loc 2 240 0
 899 0060 80E8      		ldi r24,lo8(-128)
 900 0062 00C0      		rjmp .L86
 901               	.L89:
 902               	.LVL82:
 903               	.LBE273:
 904               	.LBE274:
 905               	.LBE275:
 906               	.LBE284:
 907               	.LBB285:
 908               	.LBB286:
 909               		.loc 2 554 0
 910 0064 1092 F100 		sts 241,__zero_reg__
 911               	.LVL83:
 912               	.L88:
 913               	.LBE286:
 914               	.LBE285:
 915               	.LBB287:
 916               	.LBB288:
 360:../../tmk_core/protocol/lufa/LUFA-git/LUFA/Drivers/USB/Core/AVR8/../AVR8/Endpoint_AVR8.h **** 			}
 917               		.loc 2 360 0
 918 0068 9091 E800 		lds r25,232
 919               	.LBE288:
 920               	.LBE287:
 133:../../tmk_core/protocol/lufa/lufa.c ****         Endpoint_Write_8(0);
 921               		.loc 1 133 0
 922 006c 95FD      		sbrc r25,5
 923 006e 00C0      		rjmp .L89
 924               	.LBB289:
 925               	.LBB290:
 407:../../tmk_core/protocol/lufa/LUFA-git/LUFA/Drivers/USB/Core/AVR8/../AVR8/Endpoint_AVR8.h **** 			}
 926               		.loc 2 407 0
 927 0070 9091 E800 		lds r25,232
 928               	.LBE290:
 929               	.LBE289:
 137:../../tmk_core/protocol/lufa/lufa.c ****         Endpoint_ClearIN();
 930               		.loc 1 137 0
 931 0074 90FF      		sbrs r25,0
 932 0076 00C0      		rjmp .L90
 933               	.LBB291:
 934               	.LBB292:
 456:../../tmk_core/protocol/lufa/LUFA-git/LUFA/Drivers/USB/Core/AVR8/../AVR8/Endpoint_AVR8.h **** 				#else
 935               		.loc 2 456 0
 936 0078 9091 E800 		lds r25,232
 937 007c 9E77      		andi r25,lo8(126)
 938 007e 9093 E800 		sts 232,r25
 939 0082 00C0      		rjmp .L90
 940               	.LBE292:
 941               	.LBE291:
 942               	.LBE293:
 943               	.LBE294:
 944               		.cfi_endproc
 945               	.LFE114:
 947               		.section	.text.EVENT_USB_Device_ConfigurationChanged,"ax",@progbits
 948               	.global	EVENT_USB_Device_ConfigurationChanged
 950               	EVENT_USB_Device_ConfigurationChanged:
 951               	.LFB115:
 234:../../tmk_core/protocol/lufa/lufa.c **** #ifdef LUFA_DEBUG
 952               		.loc 1 234 0
 953               		.cfi_startproc
 954               	/* prologue: function */
 955               	/* frame size = 0 */
 956               	/* stack size = 0 */
 957               	.L__stack_usage = 0
 958               	.LVL84:
 959               	.LBB295:
 960               	.LBB296:
 210:../../tmk_core/protocol/lufa/LUFA-git/LUFA/Drivers/USB/Core/AVR8/../AVR8/Endpoint_AVR8.h **** 				                                      ((Type << EPTYPE0) | ((Address & ENDPOINT_DIR_IN) ? (1 <<
 961               		.loc 2 210 0
 962 0000 42E0      		ldi r20,lo8(2)
 963 0002 61EC      		ldi r22,lo8(-63)
 964 0004 81E0      		ldi r24,lo8(1)
 965 0006 0E94 0000 		call Endpoint_ConfigureEndpoint_Prv
 966               	.LVL85:
 967               	.LBE296:
 968               	.LBE295:
 969               	.LBB297:
 970               	.LBB298:
 971 000a 42E0      		ldi r20,lo8(2)
 972 000c 61EC      		ldi r22,lo8(-63)
 973 000e 82E0      		ldi r24,lo8(2)
 974 0010 0E94 0000 		call Endpoint_ConfigureEndpoint_Prv
 975               	.LVL86:
 976               	.LBE298:
 977               	.LBE297:
 978               	.LBB299:
 979               	.LBB300:
 980 0014 42E0      		ldi r20,lo8(2)
 981 0016 61EC      		ldi r22,lo8(-63)
 982 0018 83E0      		ldi r24,lo8(3)
 983 001a 0E94 0000 		call Endpoint_ConfigureEndpoint_Prv
 984               	.LVL87:
 985               	.LBE300:
 986               	.LBE299:
 987               	.LBB301:
 988               	.LBB302:
 989 001e 42E2      		ldi r20,lo8(34)
 990 0020 61EC      		ldi r22,lo8(-63)
 991 0022 84E0      		ldi r24,lo8(4)
 992 0024 0C94 0000 		jmp Endpoint_ConfigureEndpoint_Prv
 993               	.LVL88:
 994               	.LBE302:
 995               	.LBE301:
 996               		.cfi_endproc
 997               	.LFE115:
 999               		.section	.text.EVENT_USB_Device_ControlRequest,"ax",@progbits
 1000               	.global	EVENT_USB_Device_ControlRequest
 1002               	EVENT_USB_Device_ControlRequest:
 1003               	.LFB116:
 290:../../tmk_core/protocol/lufa/lufa.c ****     uint8_t* ReportData = NULL;
 1004               		.loc 1 290 0
 1005               		.cfi_startproc
 1006               	/* prologue: function */
 1007               	/* frame size = 0 */
 1008               	/* stack size = 0 */
 1009               	.L__stack_usage = 0
 1010               	.LVL89:
 295:../../tmk_core/protocol/lufa/lufa.c ****     {
 1011               		.loc 1 295 0
 1012 0000 8091 0000 		lds r24,USB_ControlRequest+1
 1013 0004 8330      		cpi r24,lo8(3)
 1014 0006 01F4      		brne .+2
 1015 0008 00C0      		rjmp .L105
 1016 000a 00F4      		brsh .L106
 1017 000c 8130      		cpi r24,lo8(1)
 1018 000e 01F0      		breq .L107
 1019 0010 8230      		cpi r24,lo8(2)
 1020 0012 01F4      		brne .+2
 1021 0014 00C0      		rjmp .L108
 1022 0016 0895      		ret
 1023               	.L106:
 1024 0018 8A30      		cpi r24,lo8(10)
 1025 001a 01F4      		brne .+2
 1026 001c 00C0      		rjmp .L109
 1027 001e 8B30      		cpi r24,lo8(11)
 1028 0020 01F4      		brne .+2
 1029 0022 00C0      		rjmp .L110
 1030 0024 8930      		cpi r24,lo8(9)
 1031 0026 01F0      		breq .+2
 1032 0028 00C0      		rjmp .L103
 321:../../tmk_core/protocol/lufa/lufa.c ****             {
 1033               		.loc 1 321 0
 1034 002a 8091 0000 		lds r24,USB_ControlRequest
 1035 002e 8132      		cpi r24,lo8(33)
 1036 0030 01F4      		brne .L103
 325:../../tmk_core/protocol/lufa/lufa.c ****                 case KEYBOARD_INTERFACE:
 1037               		.loc 1 325 0
 1038 0032 8091 0000 		lds r24,USB_ControlRequest+4
 1039 0036 9091 0000 		lds r25,USB_ControlRequest+4+1
 1040 003a 892B      		or r24,r25
 1041 003c 01F4      		brne .L103
 1042               	.LBB303:
 1043               	.LBB304:
 444:../../tmk_core/protocol/lufa/LUFA-git/LUFA/Drivers/USB/Core/AVR8/../AVR8/Endpoint_AVR8.h **** 			}
 1044               		.loc 2 444 0
 1045 003e 8091 E800 		lds r24,232
 1046 0042 877F      		andi r24,lo8(-9)
 1047 0044 8093 E800 		sts 232,r24
 1048               	.L117:
 1049               	.LBE304:
 1050               	.LBE303:
 1051               	.LBB305:
 1052               	.LBB306:
 419:../../tmk_core/protocol/lufa/LUFA-git/LUFA/Drivers/USB/Core/AVR8/../AVR8/Endpoint_AVR8.h **** 			}
 1053               		.loc 2 419 0
 1054 0048 8091 E800 		lds r24,232
 1055               	.LBE306:
 1056               	.LBE305:
 332:../../tmk_core/protocol/lufa/lufa.c ****                         if (USB_DeviceState == DEVICE_STATE_Unattached)
 1057               		.loc 1 332 0
 1058 004c 82FF      		sbrs r24,2
 1059 004e 00C0      		rjmp .L118
 1060               	.LBB307:
 1061               	.LBB308:
 542:../../tmk_core/protocol/lufa/LUFA-git/LUFA/Drivers/USB/Core/AVR8/../AVR8/Endpoint_AVR8.h **** 			}
 1062               		.loc 2 542 0
 1063 0050 8091 F100 		lds r24,241
 1064               	.LBE308:
 1065               	.LBE307:
 336:../../tmk_core/protocol/lufa/lufa.c **** 
 1066               		.loc 1 336 0
 1067 0054 8093 0000 		sts keyboard_led_stats,r24
 1068               	.LBB309:
 1069               	.LBB310:
 471:../../tmk_core/protocol/lufa/LUFA-git/LUFA/Drivers/USB/Core/AVR8/../AVR8/Endpoint_AVR8.h **** 				#else
 1070               		.loc 2 471 0
 1071 0058 8091 E800 		lds r24,232
 1072 005c 8B77      		andi r24,lo8(123)
 1073               	.L130:
 1074               	.LBE310:
 1075               	.LBE309:
 1076               	.LBB311:
 1077               	.LBB312:
 456:../../tmk_core/protocol/lufa/LUFA-git/LUFA/Drivers/USB/Core/AVR8/../AVR8/Endpoint_AVR8.h **** 				#else
 1078               		.loc 2 456 0
 1079 005e 8093 E800 		sts 232,r24
 1080               	.LBE312:
 1081               	.LBE311:
 402:../../tmk_core/protocol/lufa/lufa.c **** #ifdef LUFA_DEBUG
 1082               		.loc 1 402 0
 1083 0062 0C94 0000 		jmp Endpoint_ClearStatusStage
 1084               	.LVL90:
 1085               	.L107:
 298:../../tmk_core/protocol/lufa/lufa.c ****             {
 1086               		.loc 1 298 0
 1087 0066 8091 0000 		lds r24,USB_ControlRequest
 1088 006a 813A      		cpi r24,lo8(-95)
 1089 006c 01F4      		brne .L103
 1090               	.LBB314:
 1091               	.LBB315:
 444:../../tmk_core/protocol/lufa/LUFA-git/LUFA/Drivers/USB/Core/AVR8/../AVR8/Endpoint_AVR8.h **** 			}
 1092               		.loc 2 444 0
 1093 006e 8091 E800 		lds r24,232
 1094 0072 877F      		andi r24,lo8(-9)
 1095 0074 8093 E800 		sts 232,r24
 1096               	.LBE315:
 1097               	.LBE314:
 303:../../tmk_core/protocol/lufa/lufa.c ****                 case KEYBOARD_INTERFACE:
 1098               		.loc 1 303 0
 1099 0078 8091 0000 		lds r24,USB_ControlRequest+4
 1100 007c 9091 0000 		lds r25,USB_ControlRequest+4+1
 1101 0080 892B      		or r24,r25
 1102 0082 01F4      		brne .L129
 307:../../tmk_core/protocol/lufa/lufa.c ****                     break;
 1103               		.loc 1 307 0
 1104 0084 68E0      		ldi r22,lo8(8)
 306:../../tmk_core/protocol/lufa/lufa.c ****                     ReportSize = sizeof(keyboard_report_sent);
 1105               		.loc 1 306 0
 1106 0086 80E0      		ldi r24,lo8(keyboard_report_sent)
 1107 0088 90E0      		ldi r25,hi8(keyboard_report_sent)
 1108               	.L113:
 1109               	.LVL91:
 312:../../tmk_core/protocol/lufa/lufa.c ****                 Endpoint_ClearOUT();
 1110               		.loc 1 312 0
 1111 008a 70E0      		ldi r23,0
 1112 008c 0E94 0000 		call Endpoint_Write_Control_Stream_LE
 1113               	.LVL92:
 1114               	.LBB316:
 1115               	.LBB317:
 471:../../tmk_core/protocol/lufa/LUFA-git/LUFA/Drivers/USB/Core/AVR8/../AVR8/Endpoint_AVR8.h **** 				#else
 1116               		.loc 2 471 0
 1117 0090 8091 E800 		lds r24,232
 1118 0094 8B77      		andi r24,lo8(123)
 1119 0096 8093 E800 		sts 232,r24
 1120 009a 0895      		ret
 1121               	.LVL93:
 1122               	.L129:
 1123               	.LBE317:
 1124               	.LBE316:
 292:../../tmk_core/protocol/lufa/lufa.c **** 
 1125               		.loc 1 292 0
 1126 009c 60E0      		ldi r22,0
 291:../../tmk_core/protocol/lufa/lufa.c ****     uint8_t  ReportSize = 0;
 1127               		.loc 1 291 0
 1128 009e 90E0      		ldi r25,0
 1129 00a0 80E0      		ldi r24,0
 1130 00a2 00C0      		rjmp .L113
 1131               	.L118:
 333:../../tmk_core/protocol/lufa/lufa.c ****                           return;
 1132               		.loc 1 333 0
 1133 00a4 8091 0000 		lds r24,USB_DeviceState
 1134 00a8 8111      		cpse r24,__zero_reg__
 1135 00aa 00C0      		rjmp .L117
 1136               	.L103:
 1137               	/* epilogue start */
 410:../../tmk_core/protocol/lufa/lufa.c **** 
 1138               		.loc 1 410 0
 1139 00ac 0895      		ret
 1140               	.L105:
 351:../../tmk_core/protocol/lufa/lufa.c ****             {
 1141               		.loc 1 351 0
 1142 00ae 8091 0000 		lds r24,USB_ControlRequest
 1143 00b2 813A      		cpi r24,lo8(-95)
 1144 00b4 01F4      		brne .L103
 353:../../tmk_core/protocol/lufa/lufa.c ****                     Endpoint_ClearSETUP();
 1145               		.loc 1 353 0
 1146 00b6 8091 0000 		lds r24,USB_ControlRequest+4
 1147 00ba 9091 0000 		lds r25,USB_ControlRequest+4+1
 1148 00be 892B      		or r24,r25
 1149 00c0 01F4      		brne .L103
 1150               	.LBB318:
 1151               	.LBB319:
 444:../../tmk_core/protocol/lufa/LUFA-git/LUFA/Drivers/USB/Core/AVR8/../AVR8/Endpoint_AVR8.h **** 			}
 1152               		.loc 2 444 0
 1153 00c2 8091 E800 		lds r24,232
 1154 00c6 877F      		andi r24,lo8(-9)
 1155 00c8 8093 E800 		sts 232,r24
 1156               	.L119:
 1157               	.LBE319:
 1158               	.LBE318:
 1159               	.LBB320:
 1160               	.LBB321:
 407:../../tmk_core/protocol/lufa/LUFA-git/LUFA/Drivers/USB/Core/AVR8/../AVR8/Endpoint_AVR8.h **** 			}
 1161               		.loc 2 407 0 discriminator 1
 1162 00cc 8091 E800 		lds r24,232
 1163               	.LBE321:
 1164               	.LBE320:
 355:../../tmk_core/protocol/lufa/lufa.c ****                     Endpoint_Write_8(keyboard_protocol);
 1165               		.loc 1 355 0 discriminator 1
 1166 00d0 80FF      		sbrs r24,0
 1167 00d2 00C0      		rjmp .L119
 356:../../tmk_core/protocol/lufa/lufa.c ****                     Endpoint_ClearIN();
 1168               		.loc 1 356 0
 1169 00d4 8091 0000 		lds r24,keyboard_protocol
 1170               	.LVL94:
 1171               	.L131:
 1172               	.LBB322:
 1173               	.LBB323:
 1174               		.loc 2 554 0
 1175 00d8 8093 F100 		sts 241,r24
 1176               	.LVL95:
 1177               	.LBE323:
 1178               	.LBE322:
 1179               	.LBB324:
 1180               	.LBB313:
 456:../../tmk_core/protocol/lufa/LUFA-git/LUFA/Drivers/USB/Core/AVR8/../AVR8/Endpoint_AVR8.h **** 				#else
 1181               		.loc 2 456 0
 1182 00dc 8091 E800 		lds r24,232
 1183 00e0 8E77      		andi r24,lo8(126)
 1184 00e2 00C0      		rjmp .L130
 1185               	.L110:
 1186               	.LBE313:
 1187               	.LBE324:
 367:../../tmk_core/protocol/lufa/lufa.c ****             {
 1188               		.loc 1 367 0
 1189 00e4 8091 0000 		lds r24,USB_ControlRequest
 1190 00e8 8132      		cpi r24,lo8(33)
 1191 00ea 01F4      		brne .L103
 369:../../tmk_core/protocol/lufa/lufa.c ****                     Endpoint_ClearSETUP();
 1192               		.loc 1 369 0
 1193 00ec 8091 0000 		lds r24,USB_ControlRequest+4
 1194 00f0 9091 0000 		lds r25,USB_ControlRequest+4+1
 1195 00f4 892B      		or r24,r25
 1196 00f6 01F4      		brne .L103
 1197               	.LBB325:
 1198               	.LBB326:
 444:../../tmk_core/protocol/lufa/LUFA-git/LUFA/Drivers/USB/Core/AVR8/../AVR8/Endpoint_AVR8.h **** 			}
 1199               		.loc 2 444 0
 1200 00f8 8091 E800 		lds r24,232
 1201 00fc 877F      		andi r24,lo8(-9)
 1202 00fe 8093 E800 		sts 232,r24
 1203               	.LBE326:
 1204               	.LBE325:
 371:../../tmk_core/protocol/lufa/lufa.c **** 
 1205               		.loc 1 371 0
 1206 0102 0E94 0000 		call Endpoint_ClearStatusStage
 1207               	.LVL96:
 373:../../tmk_core/protocol/lufa/lufa.c ****                     clear_keyboard();
 1208               		.loc 1 373 0
 1209 0106 8091 0000 		lds r24,USB_ControlRequest+2
 1210 010a 8093 0000 		sts keyboard_protocol,r24
 374:../../tmk_core/protocol/lufa/lufa.c **** #ifdef LUFA_DEBUG
 1211               		.loc 1 374 0
 1212 010e 0C94 0000 		jmp clear_keyboard
 1213               	.LVL97:
 1214               	.L109:
 383:../../tmk_core/protocol/lufa/lufa.c ****             {
 1215               		.loc 1 383 0
 1216 0112 8091 0000 		lds r24,USB_ControlRequest
 1217 0116 8132      		cpi r24,lo8(33)
 1218 0118 01F4      		brne .L103
 1219               	.LBB327:
 1220               	.LBB328:
 444:../../tmk_core/protocol/lufa/LUFA-git/LUFA/Drivers/USB/Core/AVR8/../AVR8/Endpoint_AVR8.h **** 			}
 1221               		.loc 2 444 0
 1222 011a 8091 E800 		lds r24,232
 1223 011e 877F      		andi r24,lo8(-9)
 1224 0120 8093 E800 		sts 232,r24
 1225               	.LBE328:
 1226               	.LBE327:
 386:../../tmk_core/protocol/lufa/lufa.c **** 
 1227               		.loc 1 386 0
 1228 0124 0E94 0000 		call Endpoint_ClearStatusStage
 1229               	.LVL98:
 388:../../tmk_core/protocol/lufa/lufa.c **** #ifdef LUFA_DEBUG
 1230               		.loc 1 388 0
 1231 0128 8091 0000 		lds r24,USB_ControlRequest+3
 1232 012c 8093 0000 		sts keyboard_idle,r24
 1233 0130 0895      		ret
 1234               	.L108:
 396:../../tmk_core/protocol/lufa/lufa.c ****             {
 1235               		.loc 1 396 0
 1236 0132 8091 0000 		lds r24,USB_ControlRequest
 1237 0136 813A      		cpi r24,lo8(-95)
 1238 0138 01F0      		breq .+2
 1239 013a 00C0      		rjmp .L103
 1240               	.LBB329:
 1241               	.LBB330:
 444:../../tmk_core/protocol/lufa/LUFA-git/LUFA/Drivers/USB/Core/AVR8/../AVR8/Endpoint_AVR8.h **** 			}
 1242               		.loc 2 444 0
 1243 013c 8091 E800 		lds r24,232
 1244 0140 877F      		andi r24,lo8(-9)
 1245 0142 8093 E800 		sts 232,r24
 1246               	.L120:
 1247               	.LBE330:
 1248               	.LBE329:
 1249               	.LBB331:
 1250               	.LBB332:
 407:../../tmk_core/protocol/lufa/LUFA-git/LUFA/Drivers/USB/Core/AVR8/../AVR8/Endpoint_AVR8.h **** 			}
 1251               		.loc 2 407 0 discriminator 1
 1252 0146 8091 E800 		lds r24,232
 1253               	.LBE332:
 1254               	.LBE331:
 399:../../tmk_core/protocol/lufa/lufa.c ****                 Endpoint_Write_8(keyboard_idle);
 1255               		.loc 1 399 0 discriminator 1
 1256 014a 80FF      		sbrs r24,0
 1257 014c 00C0      		rjmp .L120
 400:../../tmk_core/protocol/lufa/lufa.c ****                 Endpoint_ClearIN();
 1258               		.loc 1 400 0
 1259 014e 8091 0000 		lds r24,keyboard_idle
 1260 0152 00C0      		rjmp .L131
 1261               		.cfi_endproc
 1262               	.LFE116:
 1264               		.section	.text.hook_early_init,"ax",@progbits
 1265               		.weak	hook_early_init
 1267               	hook_early_init:
 1268               	.LFB126:
 590:../../tmk_core/protocol/lufa/lufa.c **** #else
 591:../../tmk_core/protocol/lufa/lufa.c **** int8_t sendchar(uint8_t c)
 592:../../tmk_core/protocol/lufa/lufa.c **** {
 593:../../tmk_core/protocol/lufa/lufa.c **** #ifdef LUFA_DEBUG_SUART
 594:../../tmk_core/protocol/lufa/lufa.c ****     xmit(c);
 595:../../tmk_core/protocol/lufa/lufa.c **** #endif
 596:../../tmk_core/protocol/lufa/lufa.c ****     return 0;
 597:../../tmk_core/protocol/lufa/lufa.c **** }
 598:../../tmk_core/protocol/lufa/lufa.c **** #endif
 599:../../tmk_core/protocol/lufa/lufa.c **** 
 600:../../tmk_core/protocol/lufa/lufa.c **** 
 601:../../tmk_core/protocol/lufa/lufa.c **** /*******************************************************************************
 602:../../tmk_core/protocol/lufa/lufa.c ****  * main
 603:../../tmk_core/protocol/lufa/lufa.c ****  ******************************************************************************/
 604:../../tmk_core/protocol/lufa/lufa.c **** static void setup_mcu(void)
 605:../../tmk_core/protocol/lufa/lufa.c **** {
 606:../../tmk_core/protocol/lufa/lufa.c ****     /* Disable watchdog if enabled by bootloader/fuses */
 607:../../tmk_core/protocol/lufa/lufa.c ****     MCUSR &= ~(1 << WDRF);
 608:../../tmk_core/protocol/lufa/lufa.c ****     wdt_disable();
 609:../../tmk_core/protocol/lufa/lufa.c **** 
 610:../../tmk_core/protocol/lufa/lufa.c ****     /* Disable clock division */
 611:../../tmk_core/protocol/lufa/lufa.c ****     clock_prescale_set(clock_div_1);
 612:../../tmk_core/protocol/lufa/lufa.c **** }
 613:../../tmk_core/protocol/lufa/lufa.c **** 
 614:../../tmk_core/protocol/lufa/lufa.c **** static void setup_usb(void)
 615:../../tmk_core/protocol/lufa/lufa.c **** {
 616:../../tmk_core/protocol/lufa/lufa.c ****     // Leonardo needs. Without this USB device is not recognized.
 617:../../tmk_core/protocol/lufa/lufa.c ****     USB_Disable();
 618:../../tmk_core/protocol/lufa/lufa.c **** 
 619:../../tmk_core/protocol/lufa/lufa.c ****     USB_Init();
 620:../../tmk_core/protocol/lufa/lufa.c **** 
 621:../../tmk_core/protocol/lufa/lufa.c ****     // for Console_Task
 622:../../tmk_core/protocol/lufa/lufa.c ****     USB_Device_EnableSOFEvents();
 623:../../tmk_core/protocol/lufa/lufa.c **** }
 624:../../tmk_core/protocol/lufa/lufa.c **** 
 625:../../tmk_core/protocol/lufa/lufa.c **** int main(void)  __attribute__ ((weak));
 626:../../tmk_core/protocol/lufa/lufa.c **** int main(void)
 627:../../tmk_core/protocol/lufa/lufa.c **** {
 628:../../tmk_core/protocol/lufa/lufa.c ****     setup_mcu();
 629:../../tmk_core/protocol/lufa/lufa.c **** 
 630:../../tmk_core/protocol/lufa/lufa.c **** #ifdef LUFA_DEBUG_SUART
 631:../../tmk_core/protocol/lufa/lufa.c ****     SUART_OUT_DDR |= (1<<SUART_OUT_BIT);
 632:../../tmk_core/protocol/lufa/lufa.c ****     SUART_OUT_PORT |= (1<<SUART_OUT_BIT);
 633:../../tmk_core/protocol/lufa/lufa.c **** #endif
 634:../../tmk_core/protocol/lufa/lufa.c ****     print_set_sendchar(sendchar);
 635:../../tmk_core/protocol/lufa/lufa.c ****     print("\r\ninit\n");
 636:../../tmk_core/protocol/lufa/lufa.c **** 
 637:../../tmk_core/protocol/lufa/lufa.c ****     hook_early_init();
 638:../../tmk_core/protocol/lufa/lufa.c ****     keyboard_setup();
 639:../../tmk_core/protocol/lufa/lufa.c ****     setup_usb();
 640:../../tmk_core/protocol/lufa/lufa.c ****     sei();
 641:../../tmk_core/protocol/lufa/lufa.c **** 
 642:../../tmk_core/protocol/lufa/lufa.c ****     /* wait for USB startup & debug output */
 643:../../tmk_core/protocol/lufa/lufa.c ****     while (USB_DeviceState != DEVICE_STATE_Configured) {
 644:../../tmk_core/protocol/lufa/lufa.c **** #if defined(INTERRUPT_CONTROL_ENDPOINT)
 645:../../tmk_core/protocol/lufa/lufa.c ****         ;
 646:../../tmk_core/protocol/lufa/lufa.c **** #else
 647:../../tmk_core/protocol/lufa/lufa.c ****         USB_USBTask();
 648:../../tmk_core/protocol/lufa/lufa.c **** #endif
 649:../../tmk_core/protocol/lufa/lufa.c ****     }
 650:../../tmk_core/protocol/lufa/lufa.c ****     print("USB configured.\n");
 651:../../tmk_core/protocol/lufa/lufa.c **** 
 652:../../tmk_core/protocol/lufa/lufa.c ****     /* init modules */
 653:../../tmk_core/protocol/lufa/lufa.c ****     keyboard_init();
 654:../../tmk_core/protocol/lufa/lufa.c ****     host_set_driver(&lufa_driver);
 655:../../tmk_core/protocol/lufa/lufa.c **** #ifdef SLEEP_LED_ENABLE
 656:../../tmk_core/protocol/lufa/lufa.c ****     sleep_led_init();
 657:../../tmk_core/protocol/lufa/lufa.c **** #endif
 658:../../tmk_core/protocol/lufa/lufa.c **** 
 659:../../tmk_core/protocol/lufa/lufa.c ****     print("Keyboard start.\n");
 660:../../tmk_core/protocol/lufa/lufa.c ****     hook_late_init();
 661:../../tmk_core/protocol/lufa/lufa.c ****     while (1) {
 662:../../tmk_core/protocol/lufa/lufa.c ****         while (USB_DeviceState == DEVICE_STATE_Suspended) {
 663:../../tmk_core/protocol/lufa/lufa.c **** #ifdef LUFA_DEBUG
 664:../../tmk_core/protocol/lufa/lufa.c ****             print("[s]");
 665:../../tmk_core/protocol/lufa/lufa.c **** #endif
 666:../../tmk_core/protocol/lufa/lufa.c ****             hook_usb_suspend_loop();
 667:../../tmk_core/protocol/lufa/lufa.c ****         }
 668:../../tmk_core/protocol/lufa/lufa.c **** 
 669:../../tmk_core/protocol/lufa/lufa.c ****         keyboard_task();
 670:../../tmk_core/protocol/lufa/lufa.c **** 
 671:../../tmk_core/protocol/lufa/lufa.c **** #if !defined(INTERRUPT_CONTROL_ENDPOINT)
 672:../../tmk_core/protocol/lufa/lufa.c ****         USB_USBTask();
 673:../../tmk_core/protocol/lufa/lufa.c **** #endif
 674:../../tmk_core/protocol/lufa/lufa.c ****     }
 675:../../tmk_core/protocol/lufa/lufa.c **** }
 676:../../tmk_core/protocol/lufa/lufa.c **** 
 677:../../tmk_core/protocol/lufa/lufa.c **** 
 678:../../tmk_core/protocol/lufa/lufa.c **** /* hooks */
 679:../../tmk_core/protocol/lufa/lufa.c **** __attribute__((weak))
 680:../../tmk_core/protocol/lufa/lufa.c **** void hook_early_init(void) {}
 1269               		.loc 1 680 0
 1270               		.cfi_startproc
 1271               	/* prologue: function */
 1272               	/* frame size = 0 */
 1273               	/* stack size = 0 */
 1274               	.L__stack_usage = 0
 1275               	/* epilogue start */
 1276               		.loc 1 680 0
 1277 0000 0895      		ret
 1278               		.cfi_endproc
 1279               	.LFE126:
 1281               		.set	hook_early_init.localalias.0,hook_early_init
 1282               		.section	.text.hook_late_init,"ax",@progbits
 1283               		.weak	hook_late_init
 1285               	hook_late_init:
 1286               	.LFB132:
 1287               		.cfi_startproc
 1288               	/* prologue: function */
 1289               	/* frame size = 0 */
 1290               	/* stack size = 0 */
 1291               	.L__stack_usage = 0
 1292               	/* epilogue start */
 1293 0000 0895      		ret
 1294               		.cfi_endproc
 1295               	.LFE132:
 1297               		.section	.text.hook_usb_suspend_entry,"ax",@progbits
 1298               		.weak	hook_usb_suspend_entry
 1300               	hook_usb_suspend_entry:
 1301               	.LFB128:
 681:../../tmk_core/protocol/lufa/lufa.c **** 
 682:../../tmk_core/protocol/lufa/lufa.c **** __attribute__((weak))
 683:../../tmk_core/protocol/lufa/lufa.c **** void hook_late_init(void) {}
 684:../../tmk_core/protocol/lufa/lufa.c **** 
 685:../../tmk_core/protocol/lufa/lufa.c **** static uint8_t _led_stats = 0;
 686:../../tmk_core/protocol/lufa/lufa.c ****  __attribute__((weak))
 687:../../tmk_core/protocol/lufa/lufa.c **** void hook_usb_suspend_entry(void)
 688:../../tmk_core/protocol/lufa/lufa.c **** {
 1302               		.loc 1 688 0
 1303               		.cfi_startproc
 1304               	/* prologue: function */
 1305               	/* frame size = 0 */
 1306               	/* stack size = 0 */
 1307               	.L__stack_usage = 0
 689:../../tmk_core/protocol/lufa/lufa.c ****     // Turn LED off to save power
 690:../../tmk_core/protocol/lufa/lufa.c ****     // Set 0 with putting aside status before suspend and restore
 691:../../tmk_core/protocol/lufa/lufa.c ****     // it after wakeup, then LED is updated at keyboard_task() in main loop
 692:../../tmk_core/protocol/lufa/lufa.c ****     _led_stats = keyboard_led_stats;
 1308               		.loc 1 692 0
 1309 0000 8091 0000 		lds r24,keyboard_led_stats
 1310 0004 8093 0000 		sts _led_stats,r24
 693:../../tmk_core/protocol/lufa/lufa.c ****     keyboard_led_stats = 0;
 1311               		.loc 1 693 0
 1312 0008 1092 0000 		sts keyboard_led_stats,__zero_reg__
 694:../../tmk_core/protocol/lufa/lufa.c ****     led_set(keyboard_led_stats);
 1313               		.loc 1 694 0
 1314 000c 80E0      		ldi r24,0
 1315 000e 0E94 0000 		call led_set
 1316               	.LVL99:
 695:../../tmk_core/protocol/lufa/lufa.c **** 
 696:../../tmk_core/protocol/lufa/lufa.c ****     matrix_clear();
 1317               		.loc 1 696 0
 1318 0012 0E94 0000 		call matrix_clear
 1319               	.LVL100:
 697:../../tmk_core/protocol/lufa/lufa.c ****     clear_keyboard();
 1320               		.loc 1 697 0
 1321 0016 0C94 0000 		jmp clear_keyboard
 1322               	.LVL101:
 1323               		.cfi_endproc
 1324               	.LFE128:
 1326               		.section	.text.EVENT_USB_Device_Suspend,"ax",@progbits
 1327               	.global	EVENT_USB_Device_Suspend
 1329               	EVENT_USB_Device_Suspend:
 1330               	.LFB112:
 193:../../tmk_core/protocol/lufa/lufa.c **** #ifdef LUFA_DEBUG
 1331               		.loc 1 193 0
 1332               		.cfi_startproc
 1333               	/* prologue: function */
 1334               	/* frame size = 0 */
 1335               	/* stack size = 0 */
 1336               	.L__stack_usage = 0
 197:../../tmk_core/protocol/lufa/lufa.c **** }
 1337               		.loc 1 197 0
 1338 0000 0C94 0000 		jmp hook_usb_suspend_entry
 1339               	.LVL102:
 1340               		.cfi_endproc
 1341               	.LFE112:
 1343               		.section	.text.hook_usb_suspend_loop,"ax",@progbits
 1344               		.weak	hook_usb_suspend_loop
 1346               	hook_usb_suspend_loop:
 1347               	.LFB129:
 698:../../tmk_core/protocol/lufa/lufa.c **** #ifdef SLEEP_LED_ENABLE
 699:../../tmk_core/protocol/lufa/lufa.c ****     sleep_led_enable();
 700:../../tmk_core/protocol/lufa/lufa.c **** #endif
 701:../../tmk_core/protocol/lufa/lufa.c **** }
 702:../../tmk_core/protocol/lufa/lufa.c **** 
 703:../../tmk_core/protocol/lufa/lufa.c **** __attribute__((weak))
 704:../../tmk_core/protocol/lufa/lufa.c **** void hook_usb_suspend_loop(void)
 705:../../tmk_core/protocol/lufa/lufa.c **** {
 1348               		.loc 1 705 0
 1349               		.cfi_startproc
 1350               	/* prologue: function */
 1351               	/* frame size = 0 */
 1352               	/* stack size = 0 */
 1353               	.L__stack_usage = 0
 706:../../tmk_core/protocol/lufa/lufa.c ****     suspend_power_down();
 1354               		.loc 1 706 0
 1355 0000 0E94 0000 		call suspend_power_down
 1356               	.LVL103:
 707:../../tmk_core/protocol/lufa/lufa.c ****     if (USB_Device_RemoteWakeupEnabled && suspend_wakeup_condition()) {
 1357               		.loc 1 707 0
 1358 0004 8091 0000 		lds r24,USB_Device_RemoteWakeupEnabled
 1359 0008 8823      		tst r24
 1360 000a 01F0      		breq .L136
 1361               		.loc 1 707 0 is_stmt 0 discriminator 1
 1362 000c 0E94 0000 		call suspend_wakeup_condition
 1363               	.LVL104:
 1364 0010 8111      		cpse r24,__zero_reg__
 708:../../tmk_core/protocol/lufa/lufa.c ****         USB_Device_SendRemoteWakeup();
 1365               		.loc 1 708 0 is_stmt 1
 1366 0012 0C94 0000 		jmp USB_Device_SendRemoteWakeup
 1367               	.LVL105:
 1368               	.L136:
 1369               	/* epilogue start */
 709:../../tmk_core/protocol/lufa/lufa.c ****     }
 710:../../tmk_core/protocol/lufa/lufa.c **** }
 1370               		.loc 1 710 0
 1371 0016 0895      		ret
 1372               		.cfi_endproc
 1373               	.LFE129:
 1375               		.section	.text.startup.main,"ax",@progbits
 1376               		.weak	main
 1378               	main:
 1379               	.LFB125:
 627:../../tmk_core/protocol/lufa/lufa.c ****     setup_mcu();
 1380               		.loc 1 627 0
 1381               		.cfi_startproc
 1382               	/* prologue: function */
 1383               	/* frame size = 0 */
 1384               	/* stack size = 0 */
 1385               	.L__stack_usage = 0
 1386               	.LBB347:
 1387               	.LBB348:
 607:../../tmk_core/protocol/lufa/lufa.c ****     wdt_disable();
 1388               		.loc 1 607 0
 1389 0000 84B7      		in r24,0x34
 1390 0002 877F      		andi r24,lo8(-9)
 1391 0004 84BF      		out 0x34,r24
 1392               	.LBB349:
 1393               	.LBB350:
 1394               		.file 5 "c:\\avr-gcc-7.2.0-x64-mingw\\avr\\include\\avr\\wdt.h"
   1:c:\avr-gcc-7.2.0-x64-mingw\avr\include\avr\wdt.h **** /* Copyright (c) 2002, 2004 Marek Michalkiewicz
   2:c:\avr-gcc-7.2.0-x64-mingw\avr\include\avr\wdt.h ****    Copyright (c) 2005, 2006, 2007 Eric B. Weddington
   3:c:\avr-gcc-7.2.0-x64-mingw\avr\include\avr\wdt.h ****    All rights reserved.
   4:c:\avr-gcc-7.2.0-x64-mingw\avr\include\avr\wdt.h **** 
   5:c:\avr-gcc-7.2.0-x64-mingw\avr\include\avr\wdt.h ****    Redistribution and use in source and binary forms, with or without
   6:c:\avr-gcc-7.2.0-x64-mingw\avr\include\avr\wdt.h ****    modification, are permitted provided that the following conditions are met:
   7:c:\avr-gcc-7.2.0-x64-mingw\avr\include\avr\wdt.h **** 
   8:c:\avr-gcc-7.2.0-x64-mingw\avr\include\avr\wdt.h ****    * Redistributions of source code must retain the above copyright
   9:c:\avr-gcc-7.2.0-x64-mingw\avr\include\avr\wdt.h ****      notice, this list of conditions and the following disclaimer.
  10:c:\avr-gcc-7.2.0-x64-mingw\avr\include\avr\wdt.h **** 
  11:c:\avr-gcc-7.2.0-x64-mingw\avr\include\avr\wdt.h ****    * Redistributions in binary form must reproduce the above copyright
  12:c:\avr-gcc-7.2.0-x64-mingw\avr\include\avr\wdt.h ****      notice, this list of conditions and the following disclaimer in
  13:c:\avr-gcc-7.2.0-x64-mingw\avr\include\avr\wdt.h ****      the documentation and/or other materials provided with the
  14:c:\avr-gcc-7.2.0-x64-mingw\avr\include\avr\wdt.h ****      distribution.
  15:c:\avr-gcc-7.2.0-x64-mingw\avr\include\avr\wdt.h **** 
  16:c:\avr-gcc-7.2.0-x64-mingw\avr\include\avr\wdt.h ****    * Neither the name of the copyright holders nor the names of
  17:c:\avr-gcc-7.2.0-x64-mingw\avr\include\avr\wdt.h ****      contributors may be used to endorse or promote products derived
  18:c:\avr-gcc-7.2.0-x64-mingw\avr\include\avr\wdt.h ****      from this software without specific prior written permission.
  19:c:\avr-gcc-7.2.0-x64-mingw\avr\include\avr\wdt.h **** 
  20:c:\avr-gcc-7.2.0-x64-mingw\avr\include\avr\wdt.h ****   THIS SOFTWARE IS PROVIDED BY THE COPYRIGHT HOLDERS AND CONTRIBUTORS "AS IS"
  21:c:\avr-gcc-7.2.0-x64-mingw\avr\include\avr\wdt.h ****   AND ANY EXPRESS OR IMPLIED WARRANTIES, INCLUDING, BUT NOT LIMITED TO, THE
  22:c:\avr-gcc-7.2.0-x64-mingw\avr\include\avr\wdt.h ****   IMPLIED WARRANTIES OF MERCHANTABILITY AND FITNESS FOR A PARTICULAR PURPOSE
  23:c:\avr-gcc-7.2.0-x64-mingw\avr\include\avr\wdt.h ****   ARE DISCLAIMED. IN NO EVENT SHALL THE COPYRIGHT OWNER OR CONTRIBUTORS BE
  24:c:\avr-gcc-7.2.0-x64-mingw\avr\include\avr\wdt.h ****   LIABLE FOR ANY DIRECT, INDIRECT, INCIDENTAL, SPECIAL, EXEMPLARY, OR
  25:c:\avr-gcc-7.2.0-x64-mingw\avr\include\avr\wdt.h ****   CONSEQUENTIAL DAMAGES (INCLUDING, BUT NOT LIMITED TO, PROCUREMENT OF
  26:c:\avr-gcc-7.2.0-x64-mingw\avr\include\avr\wdt.h ****   SUBSTITUTE GOODS OR SERVICES; LOSS OF USE, DATA, OR PROFITS; OR BUSINESS
  27:c:\avr-gcc-7.2.0-x64-mingw\avr\include\avr\wdt.h ****   INTERRUPTION) HOWEVER CAUSED AND ON ANY THEORY OF LIABILITY, WHETHER IN
  28:c:\avr-gcc-7.2.0-x64-mingw\avr\include\avr\wdt.h ****   CONTRACT, STRICT LIABILITY, OR TORT (INCLUDING NEGLIGENCE OR OTHERWISE)
  29:c:\avr-gcc-7.2.0-x64-mingw\avr\include\avr\wdt.h ****   ARISING IN ANY WAY OUT OF THE USE OF THIS SOFTWARE, EVEN IF ADVISED OF THE
  30:c:\avr-gcc-7.2.0-x64-mingw\avr\include\avr\wdt.h ****   POSSIBILITY OF SUCH DAMAGE. */
  31:c:\avr-gcc-7.2.0-x64-mingw\avr\include\avr\wdt.h **** 
  32:c:\avr-gcc-7.2.0-x64-mingw\avr\include\avr\wdt.h **** /* $Id: wdt.h 2503 2016-02-07 22:59:47Z joerg_wunsch $ */
  33:c:\avr-gcc-7.2.0-x64-mingw\avr\include\avr\wdt.h **** 
  34:c:\avr-gcc-7.2.0-x64-mingw\avr\include\avr\wdt.h **** /*
  35:c:\avr-gcc-7.2.0-x64-mingw\avr\include\avr\wdt.h ****    avr/wdt.h - macros for AVR watchdog timer
  36:c:\avr-gcc-7.2.0-x64-mingw\avr\include\avr\wdt.h ****  */
  37:c:\avr-gcc-7.2.0-x64-mingw\avr\include\avr\wdt.h **** 
  38:c:\avr-gcc-7.2.0-x64-mingw\avr\include\avr\wdt.h **** #ifndef _AVR_WDT_H_
  39:c:\avr-gcc-7.2.0-x64-mingw\avr\include\avr\wdt.h **** #define _AVR_WDT_H_
  40:c:\avr-gcc-7.2.0-x64-mingw\avr\include\avr\wdt.h **** 
  41:c:\avr-gcc-7.2.0-x64-mingw\avr\include\avr\wdt.h **** #include <avr/io.h>
  42:c:\avr-gcc-7.2.0-x64-mingw\avr\include\avr\wdt.h **** #include <stdint.h>
  43:c:\avr-gcc-7.2.0-x64-mingw\avr\include\avr\wdt.h **** 
  44:c:\avr-gcc-7.2.0-x64-mingw\avr\include\avr\wdt.h **** /** \file */
  45:c:\avr-gcc-7.2.0-x64-mingw\avr\include\avr\wdt.h **** /** \defgroup avr_watchdog <avr/wdt.h>: Watchdog timer handling
  46:c:\avr-gcc-7.2.0-x64-mingw\avr\include\avr\wdt.h ****     \code #include <avr/wdt.h> \endcode
  47:c:\avr-gcc-7.2.0-x64-mingw\avr\include\avr\wdt.h **** 
  48:c:\avr-gcc-7.2.0-x64-mingw\avr\include\avr\wdt.h ****     This header file declares the interface to some inline macros
  49:c:\avr-gcc-7.2.0-x64-mingw\avr\include\avr\wdt.h ****     handling the watchdog timer present in many AVR devices.  In order
  50:c:\avr-gcc-7.2.0-x64-mingw\avr\include\avr\wdt.h ****     to prevent the watchdog timer configuration from being
  51:c:\avr-gcc-7.2.0-x64-mingw\avr\include\avr\wdt.h ****     accidentally altered by a crashing application, a special timed
  52:c:\avr-gcc-7.2.0-x64-mingw\avr\include\avr\wdt.h ****     sequence is required in order to change it.  The macros within
  53:c:\avr-gcc-7.2.0-x64-mingw\avr\include\avr\wdt.h ****     this header file handle the required sequence automatically
  54:c:\avr-gcc-7.2.0-x64-mingw\avr\include\avr\wdt.h ****     before changing any value.  Interrupts will be disabled during
  55:c:\avr-gcc-7.2.0-x64-mingw\avr\include\avr\wdt.h ****     the manipulation.
  56:c:\avr-gcc-7.2.0-x64-mingw\avr\include\avr\wdt.h **** 
  57:c:\avr-gcc-7.2.0-x64-mingw\avr\include\avr\wdt.h ****     \note Depending on the fuse configuration of the particular
  58:c:\avr-gcc-7.2.0-x64-mingw\avr\include\avr\wdt.h ****     device, further restrictions might apply, in particular it might
  59:c:\avr-gcc-7.2.0-x64-mingw\avr\include\avr\wdt.h ****     be disallowed to turn off the watchdog timer.
  60:c:\avr-gcc-7.2.0-x64-mingw\avr\include\avr\wdt.h **** 
  61:c:\avr-gcc-7.2.0-x64-mingw\avr\include\avr\wdt.h ****     Note that for newer devices (ATmega88 and newer, effectively any
  62:c:\avr-gcc-7.2.0-x64-mingw\avr\include\avr\wdt.h ****     AVR that has the option to also generate interrupts), the watchdog
  63:c:\avr-gcc-7.2.0-x64-mingw\avr\include\avr\wdt.h ****     timer remains active even after a system reset (except a power-on
  64:c:\avr-gcc-7.2.0-x64-mingw\avr\include\avr\wdt.h ****     condition), using the fastest prescaler value (approximately 15
  65:c:\avr-gcc-7.2.0-x64-mingw\avr\include\avr\wdt.h ****     ms).  It is therefore required to turn off the watchdog early
  66:c:\avr-gcc-7.2.0-x64-mingw\avr\include\avr\wdt.h ****     during program startup, the datasheet recommends a sequence like
  67:c:\avr-gcc-7.2.0-x64-mingw\avr\include\avr\wdt.h ****     the following:
  68:c:\avr-gcc-7.2.0-x64-mingw\avr\include\avr\wdt.h **** 
  69:c:\avr-gcc-7.2.0-x64-mingw\avr\include\avr\wdt.h ****     \code
  70:c:\avr-gcc-7.2.0-x64-mingw\avr\include\avr\wdt.h ****     #include <stdint.h>
  71:c:\avr-gcc-7.2.0-x64-mingw\avr\include\avr\wdt.h ****     #include <avr/wdt.h>
  72:c:\avr-gcc-7.2.0-x64-mingw\avr\include\avr\wdt.h **** 
  73:c:\avr-gcc-7.2.0-x64-mingw\avr\include\avr\wdt.h ****     uint8_t mcusr_mirror __attribute__ ((section (".noinit")));
  74:c:\avr-gcc-7.2.0-x64-mingw\avr\include\avr\wdt.h **** 
  75:c:\avr-gcc-7.2.0-x64-mingw\avr\include\avr\wdt.h ****     void get_mcusr(void) \
  76:c:\avr-gcc-7.2.0-x64-mingw\avr\include\avr\wdt.h ****       __attribute__((naked)) \
  77:c:\avr-gcc-7.2.0-x64-mingw\avr\include\avr\wdt.h ****       __attribute__((section(".init3")));
  78:c:\avr-gcc-7.2.0-x64-mingw\avr\include\avr\wdt.h ****     void get_mcusr(void)
  79:c:\avr-gcc-7.2.0-x64-mingw\avr\include\avr\wdt.h ****     {
  80:c:\avr-gcc-7.2.0-x64-mingw\avr\include\avr\wdt.h ****       mcusr_mirror = MCUSR;
  81:c:\avr-gcc-7.2.0-x64-mingw\avr\include\avr\wdt.h ****       MCUSR = 0;
  82:c:\avr-gcc-7.2.0-x64-mingw\avr\include\avr\wdt.h ****       wdt_disable();
  83:c:\avr-gcc-7.2.0-x64-mingw\avr\include\avr\wdt.h ****     }
  84:c:\avr-gcc-7.2.0-x64-mingw\avr\include\avr\wdt.h ****     \endcode
  85:c:\avr-gcc-7.2.0-x64-mingw\avr\include\avr\wdt.h **** 
  86:c:\avr-gcc-7.2.0-x64-mingw\avr\include\avr\wdt.h ****     Saving the value of MCUSR in \c mcusr_mirror is only needed if the
  87:c:\avr-gcc-7.2.0-x64-mingw\avr\include\avr\wdt.h ****     application later wants to examine the reset source, but in particular, 
  88:c:\avr-gcc-7.2.0-x64-mingw\avr\include\avr\wdt.h ****     clearing the watchdog reset flag before disabling the
  89:c:\avr-gcc-7.2.0-x64-mingw\avr\include\avr\wdt.h ****     watchdog is required, according to the datasheet.
  90:c:\avr-gcc-7.2.0-x64-mingw\avr\include\avr\wdt.h **** */
  91:c:\avr-gcc-7.2.0-x64-mingw\avr\include\avr\wdt.h **** 
  92:c:\avr-gcc-7.2.0-x64-mingw\avr\include\avr\wdt.h **** /**
  93:c:\avr-gcc-7.2.0-x64-mingw\avr\include\avr\wdt.h ****    \ingroup avr_watchdog
  94:c:\avr-gcc-7.2.0-x64-mingw\avr\include\avr\wdt.h ****    Reset the watchdog timer.  When the watchdog timer is enabled,
  95:c:\avr-gcc-7.2.0-x64-mingw\avr\include\avr\wdt.h ****    a call to this instruction is required before the timer expires,
  96:c:\avr-gcc-7.2.0-x64-mingw\avr\include\avr\wdt.h ****    otherwise a watchdog-initiated device reset will occur. 
  97:c:\avr-gcc-7.2.0-x64-mingw\avr\include\avr\wdt.h **** */
  98:c:\avr-gcc-7.2.0-x64-mingw\avr\include\avr\wdt.h **** 
  99:c:\avr-gcc-7.2.0-x64-mingw\avr\include\avr\wdt.h **** #define wdt_reset() __asm__ __volatile__ ("wdr")
 100:c:\avr-gcc-7.2.0-x64-mingw\avr\include\avr\wdt.h **** 
 101:c:\avr-gcc-7.2.0-x64-mingw\avr\include\avr\wdt.h **** #ifndef __DOXYGEN__
 102:c:\avr-gcc-7.2.0-x64-mingw\avr\include\avr\wdt.h **** 
 103:c:\avr-gcc-7.2.0-x64-mingw\avr\include\avr\wdt.h **** #if defined(WDP3)
 104:c:\avr-gcc-7.2.0-x64-mingw\avr\include\avr\wdt.h **** # define _WD_PS3_MASK       _BV(WDP3)
 105:c:\avr-gcc-7.2.0-x64-mingw\avr\include\avr\wdt.h **** #else
 106:c:\avr-gcc-7.2.0-x64-mingw\avr\include\avr\wdt.h **** # define _WD_PS3_MASK       0x00
 107:c:\avr-gcc-7.2.0-x64-mingw\avr\include\avr\wdt.h **** #endif
 108:c:\avr-gcc-7.2.0-x64-mingw\avr\include\avr\wdt.h **** 
 109:c:\avr-gcc-7.2.0-x64-mingw\avr\include\avr\wdt.h **** #if defined(WDTCSR)
 110:c:\avr-gcc-7.2.0-x64-mingw\avr\include\avr\wdt.h **** #  define _WD_CONTROL_REG     WDTCSR
 111:c:\avr-gcc-7.2.0-x64-mingw\avr\include\avr\wdt.h **** #elif defined(WDTCR)
 112:c:\avr-gcc-7.2.0-x64-mingw\avr\include\avr\wdt.h **** #  define _WD_CONTROL_REG     WDTCR
 113:c:\avr-gcc-7.2.0-x64-mingw\avr\include\avr\wdt.h **** #else
 114:c:\avr-gcc-7.2.0-x64-mingw\avr\include\avr\wdt.h **** #  define _WD_CONTROL_REG     WDT
 115:c:\avr-gcc-7.2.0-x64-mingw\avr\include\avr\wdt.h **** #endif
 116:c:\avr-gcc-7.2.0-x64-mingw\avr\include\avr\wdt.h **** 
 117:c:\avr-gcc-7.2.0-x64-mingw\avr\include\avr\wdt.h **** #if defined(WDTOE)
 118:c:\avr-gcc-7.2.0-x64-mingw\avr\include\avr\wdt.h **** #define _WD_CHANGE_BIT      WDTOE
 119:c:\avr-gcc-7.2.0-x64-mingw\avr\include\avr\wdt.h **** #else
 120:c:\avr-gcc-7.2.0-x64-mingw\avr\include\avr\wdt.h **** #define _WD_CHANGE_BIT      WDCE
 121:c:\avr-gcc-7.2.0-x64-mingw\avr\include\avr\wdt.h **** #endif
 122:c:\avr-gcc-7.2.0-x64-mingw\avr\include\avr\wdt.h **** 
 123:c:\avr-gcc-7.2.0-x64-mingw\avr\include\avr\wdt.h **** #endif	/* !__DOXYGEN__ */
 124:c:\avr-gcc-7.2.0-x64-mingw\avr\include\avr\wdt.h **** 
 125:c:\avr-gcc-7.2.0-x64-mingw\avr\include\avr\wdt.h **** 
 126:c:\avr-gcc-7.2.0-x64-mingw\avr\include\avr\wdt.h **** /**
 127:c:\avr-gcc-7.2.0-x64-mingw\avr\include\avr\wdt.h ****    \ingroup avr_watchdog
 128:c:\avr-gcc-7.2.0-x64-mingw\avr\include\avr\wdt.h ****    Enable the watchdog timer, configuring it for expiry after
 129:c:\avr-gcc-7.2.0-x64-mingw\avr\include\avr\wdt.h ****    \c timeout (which is a combination of the \c WDP0 through
 130:c:\avr-gcc-7.2.0-x64-mingw\avr\include\avr\wdt.h ****    \c WDP2 bits to write into the \c WDTCR register; For those devices 
 131:c:\avr-gcc-7.2.0-x64-mingw\avr\include\avr\wdt.h ****    that have a \c WDTCSR register, it uses the combination of the \c WDP0 
 132:c:\avr-gcc-7.2.0-x64-mingw\avr\include\avr\wdt.h ****    through \c WDP3 bits).
 133:c:\avr-gcc-7.2.0-x64-mingw\avr\include\avr\wdt.h **** 
 134:c:\avr-gcc-7.2.0-x64-mingw\avr\include\avr\wdt.h ****    See also the symbolic constants \c WDTO_15MS et al.
 135:c:\avr-gcc-7.2.0-x64-mingw\avr\include\avr\wdt.h **** */
 136:c:\avr-gcc-7.2.0-x64-mingw\avr\include\avr\wdt.h **** 
 137:c:\avr-gcc-7.2.0-x64-mingw\avr\include\avr\wdt.h **** 
 138:c:\avr-gcc-7.2.0-x64-mingw\avr\include\avr\wdt.h **** #if defined(__AVR_XMEGA__)
 139:c:\avr-gcc-7.2.0-x64-mingw\avr\include\avr\wdt.h **** 
 140:c:\avr-gcc-7.2.0-x64-mingw\avr\include\avr\wdt.h **** /*
 141:c:\avr-gcc-7.2.0-x64-mingw\avr\include\avr\wdt.h ****    wdt_enable(timeout) for xmega devices
 142:c:\avr-gcc-7.2.0-x64-mingw\avr\include\avr\wdt.h **** ** write signature (CCP_IOREG_gc) that enables change of protected I/O
 143:c:\avr-gcc-7.2.0-x64-mingw\avr\include\avr\wdt.h ****    registers to the CCP register
 144:c:\avr-gcc-7.2.0-x64-mingw\avr\include\avr\wdt.h **** ** At the same time,
 145:c:\avr-gcc-7.2.0-x64-mingw\avr\include\avr\wdt.h ****    1) set WDT change enable (WDT_CEN_bm)
 146:c:\avr-gcc-7.2.0-x64-mingw\avr\include\avr\wdt.h ****    2) enable WDT (WDT_ENABLE_bm)
 147:c:\avr-gcc-7.2.0-x64-mingw\avr\include\avr\wdt.h ****    3) set timeout (timeout)
 148:c:\avr-gcc-7.2.0-x64-mingw\avr\include\avr\wdt.h **** ** Synchronization starts when ENABLE bit of WDT is set. So, wait till it
 149:c:\avr-gcc-7.2.0-x64-mingw\avr\include\avr\wdt.h ****    finishes (SYNCBUSY of STATUS register is automatically cleared after the
 150:c:\avr-gcc-7.2.0-x64-mingw\avr\include\avr\wdt.h ****    sync is finished).
 151:c:\avr-gcc-7.2.0-x64-mingw\avr\include\avr\wdt.h **** */
 152:c:\avr-gcc-7.2.0-x64-mingw\avr\include\avr\wdt.h **** #define wdt_enable(timeout) \
 153:c:\avr-gcc-7.2.0-x64-mingw\avr\include\avr\wdt.h **** do { \
 154:c:\avr-gcc-7.2.0-x64-mingw\avr\include\avr\wdt.h **** uint8_t temp; \
 155:c:\avr-gcc-7.2.0-x64-mingw\avr\include\avr\wdt.h **** __asm__ __volatile__ (         \
 156:c:\avr-gcc-7.2.0-x64-mingw\avr\include\avr\wdt.h ****     "in __tmp_reg__, %[rampd]"              "\n\t" \
 157:c:\avr-gcc-7.2.0-x64-mingw\avr\include\avr\wdt.h ****     "out %[rampd], __zero_reg__"            "\n\t" \
 158:c:\avr-gcc-7.2.0-x64-mingw\avr\include\avr\wdt.h ****     "out %[ccp_reg], %[ioreg_cen_mask]"     "\n\t" \
 159:c:\avr-gcc-7.2.0-x64-mingw\avr\include\avr\wdt.h ****     "sts %[wdt_reg], %[wdt_enable_timeout]" "\n\t" \
 160:c:\avr-gcc-7.2.0-x64-mingw\avr\include\avr\wdt.h ****     "1:lds %[tmp], %[wdt_status_reg]"       "\n\t" \
 161:c:\avr-gcc-7.2.0-x64-mingw\avr\include\avr\wdt.h ****     "sbrc %[tmp], %[wdt_syncbusy_bit]"      "\n\t" \
 162:c:\avr-gcc-7.2.0-x64-mingw\avr\include\avr\wdt.h ****     "rjmp 1b"                               "\n\t" \
 163:c:\avr-gcc-7.2.0-x64-mingw\avr\include\avr\wdt.h ****     "out %[rampd], __tmp_reg__"             "\n\t" \
 164:c:\avr-gcc-7.2.0-x64-mingw\avr\include\avr\wdt.h ****     : [tmp]                "=r" (temp) \
 165:c:\avr-gcc-7.2.0-x64-mingw\avr\include\avr\wdt.h ****     : [rampd]              "I" (_SFR_IO_ADDR(RAMPD)),      \
 166:c:\avr-gcc-7.2.0-x64-mingw\avr\include\avr\wdt.h ****       [ccp_reg]            "I" (_SFR_IO_ADDR(CCP)),        \
 167:c:\avr-gcc-7.2.0-x64-mingw\avr\include\avr\wdt.h ****       [ioreg_cen_mask]     "r" ((uint8_t)CCP_IOREG_gc),     \
 168:c:\avr-gcc-7.2.0-x64-mingw\avr\include\avr\wdt.h ****       [wdt_reg]            "n" (_SFR_MEM_ADDR(WDT_CTRL)),   \
 169:c:\avr-gcc-7.2.0-x64-mingw\avr\include\avr\wdt.h ****       [wdt_enable_timeout] "r" ((uint8_t)(WDT_CEN_bm | WDT_ENABLE_bm | timeout)), \
 170:c:\avr-gcc-7.2.0-x64-mingw\avr\include\avr\wdt.h ****       [wdt_status_reg]     "n" (_SFR_MEM_ADDR(WDT_STATUS)), \
 171:c:\avr-gcc-7.2.0-x64-mingw\avr\include\avr\wdt.h ****       [wdt_syncbusy_bit]   "I" (WDT_SYNCBUSY_bm)            \
 172:c:\avr-gcc-7.2.0-x64-mingw\avr\include\avr\wdt.h ****     : "r0" \
 173:c:\avr-gcc-7.2.0-x64-mingw\avr\include\avr\wdt.h **** ); \
 174:c:\avr-gcc-7.2.0-x64-mingw\avr\include\avr\wdt.h **** } while(0)
 175:c:\avr-gcc-7.2.0-x64-mingw\avr\include\avr\wdt.h **** 
 176:c:\avr-gcc-7.2.0-x64-mingw\avr\include\avr\wdt.h **** #define wdt_disable() \
 177:c:\avr-gcc-7.2.0-x64-mingw\avr\include\avr\wdt.h **** __asm__ __volatile__ (  \
 178:c:\avr-gcc-7.2.0-x64-mingw\avr\include\avr\wdt.h ****     "in __tmp_reg__, %[rampd]"          "\n\t" \
 179:c:\avr-gcc-7.2.0-x64-mingw\avr\include\avr\wdt.h ****     "out %[rampd], __zero_reg__"        "\n\t" \
 180:c:\avr-gcc-7.2.0-x64-mingw\avr\include\avr\wdt.h ****     "out %[ccp_reg], %[ioreg_cen_mask]" "\n\t" \
 181:c:\avr-gcc-7.2.0-x64-mingw\avr\include\avr\wdt.h ****     "sts %[wdt_reg], %[disable_mask]"   "\n\t" \
 182:c:\avr-gcc-7.2.0-x64-mingw\avr\include\avr\wdt.h ****     "out %[rampd], __tmp_reg__"         "\n\t" \
 183:c:\avr-gcc-7.2.0-x64-mingw\avr\include\avr\wdt.h ****     : \
 184:c:\avr-gcc-7.2.0-x64-mingw\avr\include\avr\wdt.h ****     : [rampd]             "I" (_SFR_IO_ADDR(RAMPD)),    \
 185:c:\avr-gcc-7.2.0-x64-mingw\avr\include\avr\wdt.h ****       [ccp_reg]           "I" (_SFR_IO_ADDR(CCP)),      \
 186:c:\avr-gcc-7.2.0-x64-mingw\avr\include\avr\wdt.h ****       [ioreg_cen_mask]    "r" ((uint8_t)CCP_IOREG_gc),   \
 187:c:\avr-gcc-7.2.0-x64-mingw\avr\include\avr\wdt.h ****       [wdt_reg]           "n" (_SFR_MEM_ADDR(WDT_CTRL)), \
 188:c:\avr-gcc-7.2.0-x64-mingw\avr\include\avr\wdt.h ****       [disable_mask]      "r" ((uint8_t)((~WDT_ENABLE_bm) | WDT_CEN_bm)) \
 189:c:\avr-gcc-7.2.0-x64-mingw\avr\include\avr\wdt.h ****     : "r0" \
 190:c:\avr-gcc-7.2.0-x64-mingw\avr\include\avr\wdt.h **** );
 191:c:\avr-gcc-7.2.0-x64-mingw\avr\include\avr\wdt.h **** 
 192:c:\avr-gcc-7.2.0-x64-mingw\avr\include\avr\wdt.h **** #elif defined(__AVR_TINY__)
 193:c:\avr-gcc-7.2.0-x64-mingw\avr\include\avr\wdt.h **** 
 194:c:\avr-gcc-7.2.0-x64-mingw\avr\include\avr\wdt.h **** #define wdt_enable(value) \
 195:c:\avr-gcc-7.2.0-x64-mingw\avr\include\avr\wdt.h **** __asm__ __volatile__ ( \
 196:c:\avr-gcc-7.2.0-x64-mingw\avr\include\avr\wdt.h ****     "in __tmp_reg__,__SREG__" "\n\t"  \
 197:c:\avr-gcc-7.2.0-x64-mingw\avr\include\avr\wdt.h ****     "cli" "\n\t"  \
 198:c:\avr-gcc-7.2.0-x64-mingw\avr\include\avr\wdt.h ****     "wdr" "\n\t"  \
 199:c:\avr-gcc-7.2.0-x64-mingw\avr\include\avr\wdt.h ****     "out %[CCPADDRESS],%[SIGNATURE]" "\n\t"  \
 200:c:\avr-gcc-7.2.0-x64-mingw\avr\include\avr\wdt.h ****     "out %[WDTREG],%[WDVALUE]" "\n\t"  \
 201:c:\avr-gcc-7.2.0-x64-mingw\avr\include\avr\wdt.h ****     "out __SREG__,__tmp_reg__" "\n\t"  \
 202:c:\avr-gcc-7.2.0-x64-mingw\avr\include\avr\wdt.h ****     : /* no outputs */  \
 203:c:\avr-gcc-7.2.0-x64-mingw\avr\include\avr\wdt.h ****     : [CCPADDRESS] "I" (_SFR_IO_ADDR(CCP)),  \
 204:c:\avr-gcc-7.2.0-x64-mingw\avr\include\avr\wdt.h ****       [SIGNATURE] "r" ((uint8_t)0xD8), \
 205:c:\avr-gcc-7.2.0-x64-mingw\avr\include\avr\wdt.h ****       [WDTREG] "I" (_SFR_IO_ADDR(_WD_CONTROL_REG)), \
 206:c:\avr-gcc-7.2.0-x64-mingw\avr\include\avr\wdt.h ****       [WDVALUE] "r" ((uint8_t)((value & 0x08 ? _WD_PS3_MASK : 0x00) \
 207:c:\avr-gcc-7.2.0-x64-mingw\avr\include\avr\wdt.h ****       | _BV(WDE) | (value & 0x07) )) \
 208:c:\avr-gcc-7.2.0-x64-mingw\avr\include\avr\wdt.h ****     : "r16" \
 209:c:\avr-gcc-7.2.0-x64-mingw\avr\include\avr\wdt.h **** )
 210:c:\avr-gcc-7.2.0-x64-mingw\avr\include\avr\wdt.h **** 
 211:c:\avr-gcc-7.2.0-x64-mingw\avr\include\avr\wdt.h **** #define wdt_disable() \
 212:c:\avr-gcc-7.2.0-x64-mingw\avr\include\avr\wdt.h **** do { \
 213:c:\avr-gcc-7.2.0-x64-mingw\avr\include\avr\wdt.h **** uint8_t temp_wd; \
 214:c:\avr-gcc-7.2.0-x64-mingw\avr\include\avr\wdt.h **** __asm__ __volatile__ ( \
 215:c:\avr-gcc-7.2.0-x64-mingw\avr\include\avr\wdt.h ****     "in __tmp_reg__,__SREG__" "\n\t"  \
 216:c:\avr-gcc-7.2.0-x64-mingw\avr\include\avr\wdt.h ****     "cli" "\n\t"  \
 217:c:\avr-gcc-7.2.0-x64-mingw\avr\include\avr\wdt.h ****     "wdr" "\n\t"  \
 218:c:\avr-gcc-7.2.0-x64-mingw\avr\include\avr\wdt.h ****     "out %[CCPADDRESS],%[SIGNATURE]" "\n\t"  \
 219:c:\avr-gcc-7.2.0-x64-mingw\avr\include\avr\wdt.h ****     "in  %[TEMP_WD],%[WDTREG]" "\n\t" \
 220:c:\avr-gcc-7.2.0-x64-mingw\avr\include\avr\wdt.h ****     "cbr %[TEMP_WD],%[WDVALUE]" "\n\t" \
 221:c:\avr-gcc-7.2.0-x64-mingw\avr\include\avr\wdt.h ****     "out %[WDTREG],%[TEMP_WD]" "\n\t" \
 222:c:\avr-gcc-7.2.0-x64-mingw\avr\include\avr\wdt.h ****     "out __SREG__,__tmp_reg__" "\n\t" \
 223:c:\avr-gcc-7.2.0-x64-mingw\avr\include\avr\wdt.h ****     : /*no output */ \
 224:c:\avr-gcc-7.2.0-x64-mingw\avr\include\avr\wdt.h ****     : [CCPADDRESS] "I" (_SFR_IO_ADDR(CCP)), \
 225:c:\avr-gcc-7.2.0-x64-mingw\avr\include\avr\wdt.h ****       [SIGNATURE] "r" ((uint8_t)0xD8), \
 226:c:\avr-gcc-7.2.0-x64-mingw\avr\include\avr\wdt.h ****       [WDTREG] "I" (_SFR_IO_ADDR(_WD_CONTROL_REG)), \
 227:c:\avr-gcc-7.2.0-x64-mingw\avr\include\avr\wdt.h ****       [TEMP_WD] "d" (temp_wd), \
 228:c:\avr-gcc-7.2.0-x64-mingw\avr\include\avr\wdt.h ****       [WDVALUE] "n" (1 << WDE) \
 229:c:\avr-gcc-7.2.0-x64-mingw\avr\include\avr\wdt.h ****     : "r16" \
 230:c:\avr-gcc-7.2.0-x64-mingw\avr\include\avr\wdt.h **** ); \
 231:c:\avr-gcc-7.2.0-x64-mingw\avr\include\avr\wdt.h **** }while(0)
 232:c:\avr-gcc-7.2.0-x64-mingw\avr\include\avr\wdt.h **** 
 233:c:\avr-gcc-7.2.0-x64-mingw\avr\include\avr\wdt.h **** #elif defined(CCP)
 234:c:\avr-gcc-7.2.0-x64-mingw\avr\include\avr\wdt.h **** 
 235:c:\avr-gcc-7.2.0-x64-mingw\avr\include\avr\wdt.h **** static __inline__
 236:c:\avr-gcc-7.2.0-x64-mingw\avr\include\avr\wdt.h **** __attribute__ ((__always_inline__))
 237:c:\avr-gcc-7.2.0-x64-mingw\avr\include\avr\wdt.h **** void wdt_enable (const uint8_t value)
 238:c:\avr-gcc-7.2.0-x64-mingw\avr\include\avr\wdt.h **** {
 239:c:\avr-gcc-7.2.0-x64-mingw\avr\include\avr\wdt.h **** 	if (!_SFR_IO_REG_P (CCP) && !_SFR_IO_REG_P (_WD_CONTROL_REG))
 240:c:\avr-gcc-7.2.0-x64-mingw\avr\include\avr\wdt.h **** 	{
 241:c:\avr-gcc-7.2.0-x64-mingw\avr\include\avr\wdt.h **** 		__asm__ __volatile__ (
 242:c:\avr-gcc-7.2.0-x64-mingw\avr\include\avr\wdt.h **** 			"in __tmp_reg__,__SREG__" "\n\t"
 243:c:\avr-gcc-7.2.0-x64-mingw\avr\include\avr\wdt.h **** 			"cli" "\n\t"
 244:c:\avr-gcc-7.2.0-x64-mingw\avr\include\avr\wdt.h **** 			"wdr" "\n\t"
 245:c:\avr-gcc-7.2.0-x64-mingw\avr\include\avr\wdt.h **** 			"sts %[CCPADDRESS],%[SIGNATURE]" "\n\t"
 246:c:\avr-gcc-7.2.0-x64-mingw\avr\include\avr\wdt.h **** 			"sts %[WDTREG],%[WDVALUE]" "\n\t"
 247:c:\avr-gcc-7.2.0-x64-mingw\avr\include\avr\wdt.h **** 			"out __SREG__,__tmp_reg__" "\n\t"
 248:c:\avr-gcc-7.2.0-x64-mingw\avr\include\avr\wdt.h **** 			: /* no outputs */
 249:c:\avr-gcc-7.2.0-x64-mingw\avr\include\avr\wdt.h **** 			: [CCPADDRESS] "n" (_SFR_MEM_ADDR(CCP)),
 250:c:\avr-gcc-7.2.0-x64-mingw\avr\include\avr\wdt.h **** 			[SIGNATURE] "r" ((uint8_t)0xD8),
 251:c:\avr-gcc-7.2.0-x64-mingw\avr\include\avr\wdt.h **** 			[WDTREG] "n" (_SFR_MEM_ADDR(_WD_CONTROL_REG)),
 252:c:\avr-gcc-7.2.0-x64-mingw\avr\include\avr\wdt.h **** 			[WDVALUE] "r" ((uint8_t)((value & 0x08 ? _WD_PS3_MASK : 0x00)
 253:c:\avr-gcc-7.2.0-x64-mingw\avr\include\avr\wdt.h **** 				| _BV(WDE) | (value & 0x07) ))
 254:c:\avr-gcc-7.2.0-x64-mingw\avr\include\avr\wdt.h **** 			: "r0"
 255:c:\avr-gcc-7.2.0-x64-mingw\avr\include\avr\wdt.h **** 			);
 256:c:\avr-gcc-7.2.0-x64-mingw\avr\include\avr\wdt.h **** 	}
 257:c:\avr-gcc-7.2.0-x64-mingw\avr\include\avr\wdt.h **** 	else if (!_SFR_IO_REG_P (CCP) && _SFR_IO_REG_P (_WD_CONTROL_REG))
 258:c:\avr-gcc-7.2.0-x64-mingw\avr\include\avr\wdt.h **** 	{
 259:c:\avr-gcc-7.2.0-x64-mingw\avr\include\avr\wdt.h **** 		__asm__ __volatile__ (
 260:c:\avr-gcc-7.2.0-x64-mingw\avr\include\avr\wdt.h **** 			"in __tmp_reg__,__SREG__" "\n\t"
 261:c:\avr-gcc-7.2.0-x64-mingw\avr\include\avr\wdt.h **** 			"cli" "\n\t"
 262:c:\avr-gcc-7.2.0-x64-mingw\avr\include\avr\wdt.h **** 			"wdr" "\n\t"
 263:c:\avr-gcc-7.2.0-x64-mingw\avr\include\avr\wdt.h **** 			"sts %[CCPADDRESS],%[SIGNATURE]" "\n\t"
 264:c:\avr-gcc-7.2.0-x64-mingw\avr\include\avr\wdt.h **** 			"out %[WDTREG],%[WDVALUE]" "\n\t"
 265:c:\avr-gcc-7.2.0-x64-mingw\avr\include\avr\wdt.h **** 			"out __SREG__,__tmp_reg__" "\n\t"
 266:c:\avr-gcc-7.2.0-x64-mingw\avr\include\avr\wdt.h **** 			: /* no outputs */
 267:c:\avr-gcc-7.2.0-x64-mingw\avr\include\avr\wdt.h **** 			: [CCPADDRESS] "n" (_SFR_MEM_ADDR(CCP)),
 268:c:\avr-gcc-7.2.0-x64-mingw\avr\include\avr\wdt.h **** 			[SIGNATURE] "r" ((uint8_t)0xD8),
 269:c:\avr-gcc-7.2.0-x64-mingw\avr\include\avr\wdt.h **** 			[WDTREG] "I" (_SFR_IO_ADDR(_WD_CONTROL_REG)),
 270:c:\avr-gcc-7.2.0-x64-mingw\avr\include\avr\wdt.h **** 			[WDVALUE] "r" ((uint8_t)((value & 0x08 ? _WD_PS3_MASK : 0x00)
 271:c:\avr-gcc-7.2.0-x64-mingw\avr\include\avr\wdt.h **** 				| _BV(WDE) | (value & 0x07) ))
 272:c:\avr-gcc-7.2.0-x64-mingw\avr\include\avr\wdt.h **** 			: "r0"
 273:c:\avr-gcc-7.2.0-x64-mingw\avr\include\avr\wdt.h **** 			);
 274:c:\avr-gcc-7.2.0-x64-mingw\avr\include\avr\wdt.h **** 	}
 275:c:\avr-gcc-7.2.0-x64-mingw\avr\include\avr\wdt.h **** 	else if (_SFR_IO_REG_P (CCP) && !_SFR_IO_REG_P (_WD_CONTROL_REG))
 276:c:\avr-gcc-7.2.0-x64-mingw\avr\include\avr\wdt.h **** 	{
 277:c:\avr-gcc-7.2.0-x64-mingw\avr\include\avr\wdt.h **** 		__asm__ __volatile__ (
 278:c:\avr-gcc-7.2.0-x64-mingw\avr\include\avr\wdt.h **** 			"in __tmp_reg__,__SREG__" "\n\t"
 279:c:\avr-gcc-7.2.0-x64-mingw\avr\include\avr\wdt.h **** 			"cli" "\n\t"
 280:c:\avr-gcc-7.2.0-x64-mingw\avr\include\avr\wdt.h **** 			"wdr" "\n\t"
 281:c:\avr-gcc-7.2.0-x64-mingw\avr\include\avr\wdt.h **** 			"out %[CCPADDRESS],%[SIGNATURE]" "\n\t"
 282:c:\avr-gcc-7.2.0-x64-mingw\avr\include\avr\wdt.h **** 			"sts %[WDTREG],%[WDVALUE]" "\n\t"
 283:c:\avr-gcc-7.2.0-x64-mingw\avr\include\avr\wdt.h **** 			"out __SREG__,__tmp_reg__" "\n\t"
 284:c:\avr-gcc-7.2.0-x64-mingw\avr\include\avr\wdt.h **** 			: /* no outputs */
 285:c:\avr-gcc-7.2.0-x64-mingw\avr\include\avr\wdt.h **** 			: [CCPADDRESS] "I" (_SFR_IO_ADDR(CCP)),
 286:c:\avr-gcc-7.2.0-x64-mingw\avr\include\avr\wdt.h **** 			[SIGNATURE] "r" ((uint8_t)0xD8),
 287:c:\avr-gcc-7.2.0-x64-mingw\avr\include\avr\wdt.h **** 			[WDTREG] "n" (_SFR_MEM_ADDR(_WD_CONTROL_REG)),
 288:c:\avr-gcc-7.2.0-x64-mingw\avr\include\avr\wdt.h **** 			[WDVALUE] "r" ((uint8_t)((value & 0x08 ? _WD_PS3_MASK : 0x00)
 289:c:\avr-gcc-7.2.0-x64-mingw\avr\include\avr\wdt.h **** 				| _BV(WDE) | (value & 0x07) ))
 290:c:\avr-gcc-7.2.0-x64-mingw\avr\include\avr\wdt.h **** 			: "r0"
 291:c:\avr-gcc-7.2.0-x64-mingw\avr\include\avr\wdt.h **** 			);
 292:c:\avr-gcc-7.2.0-x64-mingw\avr\include\avr\wdt.h **** 	}
 293:c:\avr-gcc-7.2.0-x64-mingw\avr\include\avr\wdt.h **** 	else
 294:c:\avr-gcc-7.2.0-x64-mingw\avr\include\avr\wdt.h ****  	{
 295:c:\avr-gcc-7.2.0-x64-mingw\avr\include\avr\wdt.h **** 		__asm__ __volatile__ (
 296:c:\avr-gcc-7.2.0-x64-mingw\avr\include\avr\wdt.h **** 			"in __tmp_reg__,__SREG__" "\n\t"
 297:c:\avr-gcc-7.2.0-x64-mingw\avr\include\avr\wdt.h **** 			"cli" "\n\t"
 298:c:\avr-gcc-7.2.0-x64-mingw\avr\include\avr\wdt.h **** 			"wdr" "\n\t"
 299:c:\avr-gcc-7.2.0-x64-mingw\avr\include\avr\wdt.h **** 			"out %[CCPADDRESS],%[SIGNATURE]" "\n\t"
 300:c:\avr-gcc-7.2.0-x64-mingw\avr\include\avr\wdt.h **** 			"out %[WDTREG],%[WDVALUE]" "\n\t"
 301:c:\avr-gcc-7.2.0-x64-mingw\avr\include\avr\wdt.h **** 			"out __SREG__,__tmp_reg__" "\n\t"
 302:c:\avr-gcc-7.2.0-x64-mingw\avr\include\avr\wdt.h **** 			: /* no outputs */
 303:c:\avr-gcc-7.2.0-x64-mingw\avr\include\avr\wdt.h **** 			: [CCPADDRESS] "I" (_SFR_IO_ADDR(CCP)),
 304:c:\avr-gcc-7.2.0-x64-mingw\avr\include\avr\wdt.h **** 			[SIGNATURE] "r" ((uint8_t)0xD8),
 305:c:\avr-gcc-7.2.0-x64-mingw\avr\include\avr\wdt.h **** 			[WDTREG] "I" (_SFR_IO_ADDR(_WD_CONTROL_REG)),
 306:c:\avr-gcc-7.2.0-x64-mingw\avr\include\avr\wdt.h **** 			[WDVALUE] "r" ((uint8_t)((value & 0x08 ? _WD_PS3_MASK : 0x00)
 307:c:\avr-gcc-7.2.0-x64-mingw\avr\include\avr\wdt.h **** 				| _BV(WDE) | (value & 0x07) ))
 308:c:\avr-gcc-7.2.0-x64-mingw\avr\include\avr\wdt.h **** 			: "r0"
 309:c:\avr-gcc-7.2.0-x64-mingw\avr\include\avr\wdt.h **** 			);
 310:c:\avr-gcc-7.2.0-x64-mingw\avr\include\avr\wdt.h **** 	}
 311:c:\avr-gcc-7.2.0-x64-mingw\avr\include\avr\wdt.h **** }
 312:c:\avr-gcc-7.2.0-x64-mingw\avr\include\avr\wdt.h **** 
 313:c:\avr-gcc-7.2.0-x64-mingw\avr\include\avr\wdt.h **** static __inline__
 314:c:\avr-gcc-7.2.0-x64-mingw\avr\include\avr\wdt.h **** __attribute__ ((__always_inline__))
 315:c:\avr-gcc-7.2.0-x64-mingw\avr\include\avr\wdt.h **** void wdt_disable (void)
 316:c:\avr-gcc-7.2.0-x64-mingw\avr\include\avr\wdt.h **** {
 317:c:\avr-gcc-7.2.0-x64-mingw\avr\include\avr\wdt.h **** 	if (!_SFR_IO_REG_P (CCP) && !_SFR_IO_REG_P(_WD_CONTROL_REG))
 318:c:\avr-gcc-7.2.0-x64-mingw\avr\include\avr\wdt.h **** 	{
 319:c:\avr-gcc-7.2.0-x64-mingw\avr\include\avr\wdt.h ****         uint8_t temp_wd;
 320:c:\avr-gcc-7.2.0-x64-mingw\avr\include\avr\wdt.h ****         __asm__ __volatile__ (
 321:c:\avr-gcc-7.2.0-x64-mingw\avr\include\avr\wdt.h **** 				"in __tmp_reg__,__SREG__" "\n\t"
 322:c:\avr-gcc-7.2.0-x64-mingw\avr\include\avr\wdt.h **** 				"cli" "\n\t"
 323:c:\avr-gcc-7.2.0-x64-mingw\avr\include\avr\wdt.h **** 				"wdr" "\n\t"
 324:c:\avr-gcc-7.2.0-x64-mingw\avr\include\avr\wdt.h **** 				"sts %[CCPADDRESS],%[SIGNATURE]" "\n\t"
 325:c:\avr-gcc-7.2.0-x64-mingw\avr\include\avr\wdt.h **** 				"lds %[TEMP_WD],%[WDTREG]" "\n\t"
 326:c:\avr-gcc-7.2.0-x64-mingw\avr\include\avr\wdt.h **** 				"cbr %[TEMP_WD],%[WDVALUE]" "\n\t"
 327:c:\avr-gcc-7.2.0-x64-mingw\avr\include\avr\wdt.h **** 				"sts %[WDTREG],%[TEMP_WD]" "\n\t"
 328:c:\avr-gcc-7.2.0-x64-mingw\avr\include\avr\wdt.h **** 				"out __SREG__,__tmp_reg__" "\n\t"
 329:c:\avr-gcc-7.2.0-x64-mingw\avr\include\avr\wdt.h **** 				: /*no output */
 330:c:\avr-gcc-7.2.0-x64-mingw\avr\include\avr\wdt.h **** 				: [CCPADDRESS] "n" (_SFR_MEM_ADDR(CCP)),
 331:c:\avr-gcc-7.2.0-x64-mingw\avr\include\avr\wdt.h **** 				[SIGNATURE] "r" ((uint8_t)0xD8),
 332:c:\avr-gcc-7.2.0-x64-mingw\avr\include\avr\wdt.h **** 				[WDTREG] "n" (_SFR_MEM_ADDR(_WD_CONTROL_REG)),
 333:c:\avr-gcc-7.2.0-x64-mingw\avr\include\avr\wdt.h **** 				[TEMP_WD] "d" (temp_wd),
 334:c:\avr-gcc-7.2.0-x64-mingw\avr\include\avr\wdt.h **** 				[WDVALUE] "n" (1 << WDE)
 335:c:\avr-gcc-7.2.0-x64-mingw\avr\include\avr\wdt.h **** 				: "r0"
 336:c:\avr-gcc-7.2.0-x64-mingw\avr\include\avr\wdt.h **** 				);
 337:c:\avr-gcc-7.2.0-x64-mingw\avr\include\avr\wdt.h **** 	}
 338:c:\avr-gcc-7.2.0-x64-mingw\avr\include\avr\wdt.h **** 	else if (!_SFR_IO_REG_P (CCP) && _SFR_IO_REG_P(_WD_CONTROL_REG))
 339:c:\avr-gcc-7.2.0-x64-mingw\avr\include\avr\wdt.h **** 	{
 340:c:\avr-gcc-7.2.0-x64-mingw\avr\include\avr\wdt.h ****         uint8_t temp_wd;
 341:c:\avr-gcc-7.2.0-x64-mingw\avr\include\avr\wdt.h ****         __asm__ __volatile__ (
 342:c:\avr-gcc-7.2.0-x64-mingw\avr\include\avr\wdt.h **** 				"in __tmp_reg__,__SREG__" "\n\t"
 343:c:\avr-gcc-7.2.0-x64-mingw\avr\include\avr\wdt.h **** 				"cli" "\n\t"
 344:c:\avr-gcc-7.2.0-x64-mingw\avr\include\avr\wdt.h **** 				"wdr" "\n\t"
 345:c:\avr-gcc-7.2.0-x64-mingw\avr\include\avr\wdt.h **** 				"sts %[CCPADDRESS],%[SIGNATURE]" "\n\t"
 346:c:\avr-gcc-7.2.0-x64-mingw\avr\include\avr\wdt.h **** 				"in %[TEMP_WD],%[WDTREG]" "\n\t"
 347:c:\avr-gcc-7.2.0-x64-mingw\avr\include\avr\wdt.h **** 				"cbr %[TEMP_WD],%[WDVALUE]" "\n\t"
 348:c:\avr-gcc-7.2.0-x64-mingw\avr\include\avr\wdt.h **** 				"out %[WDTREG],%[TEMP_WD]" "\n\t"
 349:c:\avr-gcc-7.2.0-x64-mingw\avr\include\avr\wdt.h **** 				"out __SREG__,__tmp_reg__" "\n\t"
 350:c:\avr-gcc-7.2.0-x64-mingw\avr\include\avr\wdt.h **** 				: /*no output */
 351:c:\avr-gcc-7.2.0-x64-mingw\avr\include\avr\wdt.h **** 				: [CCPADDRESS] "n" (_SFR_MEM_ADDR(CCP)),
 352:c:\avr-gcc-7.2.0-x64-mingw\avr\include\avr\wdt.h **** 				[SIGNATURE] "r" ((uint8_t)0xD8),
 353:c:\avr-gcc-7.2.0-x64-mingw\avr\include\avr\wdt.h **** 				[WDTREG] "I" (_SFR_IO_ADDR(_WD_CONTROL_REG)),
 354:c:\avr-gcc-7.2.0-x64-mingw\avr\include\avr\wdt.h **** 				[TEMP_WD] "d" (temp_wd),
 355:c:\avr-gcc-7.2.0-x64-mingw\avr\include\avr\wdt.h **** 				[WDVALUE] "n" (1 << WDE)
 356:c:\avr-gcc-7.2.0-x64-mingw\avr\include\avr\wdt.h **** 				: "r0"
 357:c:\avr-gcc-7.2.0-x64-mingw\avr\include\avr\wdt.h **** 				);
 358:c:\avr-gcc-7.2.0-x64-mingw\avr\include\avr\wdt.h **** 	}
 359:c:\avr-gcc-7.2.0-x64-mingw\avr\include\avr\wdt.h **** 	else if (_SFR_IO_REG_P (CCP) && !_SFR_IO_REG_P(_WD_CONTROL_REG))
 360:c:\avr-gcc-7.2.0-x64-mingw\avr\include\avr\wdt.h **** 	{
 361:c:\avr-gcc-7.2.0-x64-mingw\avr\include\avr\wdt.h ****         uint8_t temp_wd;
 362:c:\avr-gcc-7.2.0-x64-mingw\avr\include\avr\wdt.h ****         __asm__ __volatile__ (
 363:c:\avr-gcc-7.2.0-x64-mingw\avr\include\avr\wdt.h **** 				"in __tmp_reg__,__SREG__" "\n\t"
 364:c:\avr-gcc-7.2.0-x64-mingw\avr\include\avr\wdt.h **** 				"cli" "\n\t"
 365:c:\avr-gcc-7.2.0-x64-mingw\avr\include\avr\wdt.h **** 				"wdr" "\n\t"
 366:c:\avr-gcc-7.2.0-x64-mingw\avr\include\avr\wdt.h **** 				"out %[CCPADDRESS],%[SIGNATURE]" "\n\t"
 367:c:\avr-gcc-7.2.0-x64-mingw\avr\include\avr\wdt.h **** 				"lds %[TEMP_WD],%[WDTREG]" "\n\t"
 368:c:\avr-gcc-7.2.0-x64-mingw\avr\include\avr\wdt.h **** 				"cbr %[TEMP_WD],%[WDVALUE]" "\n\t"
 369:c:\avr-gcc-7.2.0-x64-mingw\avr\include\avr\wdt.h **** 				"sts %[WDTREG],%[TEMP_WD]" "\n\t"
 370:c:\avr-gcc-7.2.0-x64-mingw\avr\include\avr\wdt.h **** 				"out __SREG__,__tmp_reg__" "\n\t"
 371:c:\avr-gcc-7.2.0-x64-mingw\avr\include\avr\wdt.h **** 				: /*no output */
 372:c:\avr-gcc-7.2.0-x64-mingw\avr\include\avr\wdt.h **** 				: [CCPADDRESS] "I" (_SFR_IO_ADDR(CCP)),
 373:c:\avr-gcc-7.2.0-x64-mingw\avr\include\avr\wdt.h **** 				[SIGNATURE] "r" ((uint8_t)0xD8),
 374:c:\avr-gcc-7.2.0-x64-mingw\avr\include\avr\wdt.h **** 				[WDTREG] "n" (_SFR_MEM_ADDR(_WD_CONTROL_REG)),
 375:c:\avr-gcc-7.2.0-x64-mingw\avr\include\avr\wdt.h **** 				[TEMP_WD] "d" (temp_wd),
 376:c:\avr-gcc-7.2.0-x64-mingw\avr\include\avr\wdt.h **** 				[WDVALUE] "n" (1 << WDE)
 377:c:\avr-gcc-7.2.0-x64-mingw\avr\include\avr\wdt.h **** 				: "r0"
 378:c:\avr-gcc-7.2.0-x64-mingw\avr\include\avr\wdt.h **** 				);
 379:c:\avr-gcc-7.2.0-x64-mingw\avr\include\avr\wdt.h **** 	}
 380:c:\avr-gcc-7.2.0-x64-mingw\avr\include\avr\wdt.h **** 	else
 381:c:\avr-gcc-7.2.0-x64-mingw\avr\include\avr\wdt.h **** 	{
 382:c:\avr-gcc-7.2.0-x64-mingw\avr\include\avr\wdt.h ****         uint8_t temp_wd;
 383:c:\avr-gcc-7.2.0-x64-mingw\avr\include\avr\wdt.h ****         __asm__ __volatile__ (
 384:c:\avr-gcc-7.2.0-x64-mingw\avr\include\avr\wdt.h **** 				"in __tmp_reg__,__SREG__" "\n\t"
 385:c:\avr-gcc-7.2.0-x64-mingw\avr\include\avr\wdt.h **** 				"cli" "\n\t"
 386:c:\avr-gcc-7.2.0-x64-mingw\avr\include\avr\wdt.h **** 				"wdr" "\n\t"
 387:c:\avr-gcc-7.2.0-x64-mingw\avr\include\avr\wdt.h **** 				"out %[CCPADDRESS],%[SIGNATURE]" "\n\t"
 388:c:\avr-gcc-7.2.0-x64-mingw\avr\include\avr\wdt.h **** 				"in %[TEMP_WD],%[WDTREG]" "\n\t"
 389:c:\avr-gcc-7.2.0-x64-mingw\avr\include\avr\wdt.h **** 				"cbr %[TEMP_WD],%[WDVALUE]" "\n\t"
 390:c:\avr-gcc-7.2.0-x64-mingw\avr\include\avr\wdt.h **** 				"out %[WDTREG],%[TEMP_WD]" "\n\t"
 391:c:\avr-gcc-7.2.0-x64-mingw\avr\include\avr\wdt.h **** 				"out __SREG__,__tmp_reg__" "\n\t"
 392:c:\avr-gcc-7.2.0-x64-mingw\avr\include\avr\wdt.h **** 				: /*no output */
 393:c:\avr-gcc-7.2.0-x64-mingw\avr\include\avr\wdt.h **** 				: [CCPADDRESS] "I" (_SFR_IO_ADDR(CCP)),
 394:c:\avr-gcc-7.2.0-x64-mingw\avr\include\avr\wdt.h **** 				[SIGNATURE] "r" ((uint8_t)0xD8),
 395:c:\avr-gcc-7.2.0-x64-mingw\avr\include\avr\wdt.h **** 				[WDTREG] "I" (_SFR_IO_ADDR(_WD_CONTROL_REG)),
 396:c:\avr-gcc-7.2.0-x64-mingw\avr\include\avr\wdt.h **** 				[TEMP_WD] "d" (temp_wd),
 397:c:\avr-gcc-7.2.0-x64-mingw\avr\include\avr\wdt.h **** 				[WDVALUE] "n" (1 << WDE)
 398:c:\avr-gcc-7.2.0-x64-mingw\avr\include\avr\wdt.h **** 				: "r0"
 399:c:\avr-gcc-7.2.0-x64-mingw\avr\include\avr\wdt.h **** 				);
 400:c:\avr-gcc-7.2.0-x64-mingw\avr\include\avr\wdt.h **** 	}
 401:c:\avr-gcc-7.2.0-x64-mingw\avr\include\avr\wdt.h **** }
 402:c:\avr-gcc-7.2.0-x64-mingw\avr\include\avr\wdt.h **** 
 403:c:\avr-gcc-7.2.0-x64-mingw\avr\include\avr\wdt.h **** #else
 404:c:\avr-gcc-7.2.0-x64-mingw\avr\include\avr\wdt.h **** 
 405:c:\avr-gcc-7.2.0-x64-mingw\avr\include\avr\wdt.h **** static __inline__
 406:c:\avr-gcc-7.2.0-x64-mingw\avr\include\avr\wdt.h **** __attribute__ ((__always_inline__))
 407:c:\avr-gcc-7.2.0-x64-mingw\avr\include\avr\wdt.h **** void wdt_enable (const uint8_t value)
 408:c:\avr-gcc-7.2.0-x64-mingw\avr\include\avr\wdt.h **** {
 409:c:\avr-gcc-7.2.0-x64-mingw\avr\include\avr\wdt.h **** 	if (_SFR_IO_REG_P (_WD_CONTROL_REG))
 410:c:\avr-gcc-7.2.0-x64-mingw\avr\include\avr\wdt.h **** 	{
 411:c:\avr-gcc-7.2.0-x64-mingw\avr\include\avr\wdt.h **** 		__asm__ __volatile__ (
 412:c:\avr-gcc-7.2.0-x64-mingw\avr\include\avr\wdt.h **** 				"in __tmp_reg__,__SREG__" "\n\t"
 413:c:\avr-gcc-7.2.0-x64-mingw\avr\include\avr\wdt.h **** 				"cli" "\n\t"
 414:c:\avr-gcc-7.2.0-x64-mingw\avr\include\avr\wdt.h **** 				"wdr" "\n\t"
 415:c:\avr-gcc-7.2.0-x64-mingw\avr\include\avr\wdt.h **** 				"out %0, %1" "\n\t"
 416:c:\avr-gcc-7.2.0-x64-mingw\avr\include\avr\wdt.h **** 				"out __SREG__,__tmp_reg__" "\n\t"
 417:c:\avr-gcc-7.2.0-x64-mingw\avr\include\avr\wdt.h **** 				"out %0, %2" "\n \t"
 418:c:\avr-gcc-7.2.0-x64-mingw\avr\include\avr\wdt.h **** 				: /* no outputs */
 419:c:\avr-gcc-7.2.0-x64-mingw\avr\include\avr\wdt.h **** 				: "I" (_SFR_IO_ADDR(_WD_CONTROL_REG)),
 420:c:\avr-gcc-7.2.0-x64-mingw\avr\include\avr\wdt.h **** 				"r" ((uint8_t)(_BV(_WD_CHANGE_BIT) | _BV(WDE))),
 421:c:\avr-gcc-7.2.0-x64-mingw\avr\include\avr\wdt.h **** 				"r" ((uint8_t) ((value & 0x08 ? _WD_PS3_MASK : 0x00) |
 422:c:\avr-gcc-7.2.0-x64-mingw\avr\include\avr\wdt.h **** 						_BV(WDE) | (value & 0x07)) )
 423:c:\avr-gcc-7.2.0-x64-mingw\avr\include\avr\wdt.h **** 				: "r0"
 424:c:\avr-gcc-7.2.0-x64-mingw\avr\include\avr\wdt.h **** 		);
 425:c:\avr-gcc-7.2.0-x64-mingw\avr\include\avr\wdt.h **** 	}
 426:c:\avr-gcc-7.2.0-x64-mingw\avr\include\avr\wdt.h **** 	else
 427:c:\avr-gcc-7.2.0-x64-mingw\avr\include\avr\wdt.h **** 	{
 428:c:\avr-gcc-7.2.0-x64-mingw\avr\include\avr\wdt.h **** 		__asm__ __volatile__ (
 429:c:\avr-gcc-7.2.0-x64-mingw\avr\include\avr\wdt.h **** 				"in __tmp_reg__,__SREG__" "\n\t"
 430:c:\avr-gcc-7.2.0-x64-mingw\avr\include\avr\wdt.h **** 				"cli" "\n\t"
 431:c:\avr-gcc-7.2.0-x64-mingw\avr\include\avr\wdt.h **** 				"wdr" "\n\t"
 432:c:\avr-gcc-7.2.0-x64-mingw\avr\include\avr\wdt.h **** 				"sts %0, %1" "\n\t"
 433:c:\avr-gcc-7.2.0-x64-mingw\avr\include\avr\wdt.h **** 				"out __SREG__,__tmp_reg__" "\n\t"
 434:c:\avr-gcc-7.2.0-x64-mingw\avr\include\avr\wdt.h **** 				"sts %0, %2" "\n \t"
 435:c:\avr-gcc-7.2.0-x64-mingw\avr\include\avr\wdt.h **** 				: /* no outputs */
 436:c:\avr-gcc-7.2.0-x64-mingw\avr\include\avr\wdt.h **** 				: "n" (_SFR_MEM_ADDR(_WD_CONTROL_REG)),
 437:c:\avr-gcc-7.2.0-x64-mingw\avr\include\avr\wdt.h **** 				"r" ((uint8_t)(_BV(_WD_CHANGE_BIT) | _BV(WDE))),
 438:c:\avr-gcc-7.2.0-x64-mingw\avr\include\avr\wdt.h **** 				"r" ((uint8_t) ((value & 0x08 ? _WD_PS3_MASK : 0x00) |
 439:c:\avr-gcc-7.2.0-x64-mingw\avr\include\avr\wdt.h **** 						_BV(WDE) | (value & 0x07)) )
 440:c:\avr-gcc-7.2.0-x64-mingw\avr\include\avr\wdt.h **** 				: "r0"
 441:c:\avr-gcc-7.2.0-x64-mingw\avr\include\avr\wdt.h **** 		);
 442:c:\avr-gcc-7.2.0-x64-mingw\avr\include\avr\wdt.h **** 	}
 443:c:\avr-gcc-7.2.0-x64-mingw\avr\include\avr\wdt.h **** }
 444:c:\avr-gcc-7.2.0-x64-mingw\avr\include\avr\wdt.h **** 
 445:c:\avr-gcc-7.2.0-x64-mingw\avr\include\avr\wdt.h **** static __inline__
 446:c:\avr-gcc-7.2.0-x64-mingw\avr\include\avr\wdt.h **** __attribute__ ((__always_inline__))
 447:c:\avr-gcc-7.2.0-x64-mingw\avr\include\avr\wdt.h **** void wdt_disable (void)
 448:c:\avr-gcc-7.2.0-x64-mingw\avr\include\avr\wdt.h **** {
 449:c:\avr-gcc-7.2.0-x64-mingw\avr\include\avr\wdt.h **** 	if (_SFR_IO_REG_P (_WD_CONTROL_REG))
 450:c:\avr-gcc-7.2.0-x64-mingw\avr\include\avr\wdt.h **** 	{
 451:c:\avr-gcc-7.2.0-x64-mingw\avr\include\avr\wdt.h ****         uint8_t register temp_reg;
 452:c:\avr-gcc-7.2.0-x64-mingw\avr\include\avr\wdt.h **** 		__asm__ __volatile__ (
 453:c:\avr-gcc-7.2.0-x64-mingw\avr\include\avr\wdt.h **** 				"in __tmp_reg__,__SREG__"    "\n\t"
 454:c:\avr-gcc-7.2.0-x64-mingw\avr\include\avr\wdt.h **** 				"cli"                        "\n\t"
 455:c:\avr-gcc-7.2.0-x64-mingw\avr\include\avr\wdt.h **** 				"wdr"                        "\n\t"
 456:c:\avr-gcc-7.2.0-x64-mingw\avr\include\avr\wdt.h **** 				"in  %[TEMPREG],%[WDTREG]"   "\n\t"
 457:c:\avr-gcc-7.2.0-x64-mingw\avr\include\avr\wdt.h **** 				"ori %[TEMPREG],%[WDCE_WDE]" "\n\t"
 458:c:\avr-gcc-7.2.0-x64-mingw\avr\include\avr\wdt.h **** 				"out %[WDTREG],%[TEMPREG]"   "\n\t"
 459:c:\avr-gcc-7.2.0-x64-mingw\avr\include\avr\wdt.h **** 				"out %[WDTREG],__zero_reg__" "\n\t"
 460:c:\avr-gcc-7.2.0-x64-mingw\avr\include\avr\wdt.h **** 				"out __SREG__,__tmp_reg__"   "\n\t"
 461:c:\avr-gcc-7.2.0-x64-mingw\avr\include\avr\wdt.h **** 				: [TEMPREG] "=d" (temp_reg)
 462:c:\avr-gcc-7.2.0-x64-mingw\avr\include\avr\wdt.h **** 				: [WDTREG]  "I"  (_SFR_IO_ADDR(_WD_CONTROL_REG)),
 463:c:\avr-gcc-7.2.0-x64-mingw\avr\include\avr\wdt.h **** 				[WDCE_WDE]  "n"  ((uint8_t)(_BV(_WD_CHANGE_BIT) | _BV(WDE)))
 464:c:\avr-gcc-7.2.0-x64-mingw\avr\include\avr\wdt.h **** 				: "r0"
 465:c:\avr-gcc-7.2.0-x64-mingw\avr\include\avr\wdt.h **** 		);
 466:c:\avr-gcc-7.2.0-x64-mingw\avr\include\avr\wdt.h **** 	}
 467:c:\avr-gcc-7.2.0-x64-mingw\avr\include\avr\wdt.h **** 	else
 468:c:\avr-gcc-7.2.0-x64-mingw\avr\include\avr\wdt.h **** 	{
 469:c:\avr-gcc-7.2.0-x64-mingw\avr\include\avr\wdt.h ****         uint8_t register temp_reg;
 470:c:\avr-gcc-7.2.0-x64-mingw\avr\include\avr\wdt.h **** 		__asm__ __volatile__ (
 1395               		.loc 5 470 0
 1396               	/* #APP */
 1397               	 ;  470 "c:\avr-gcc-7.2.0-x64-mingw\avr\include\avr\wdt.h" 1
 1398 0006 0FB6      		in __tmp_reg__,__SREG__
 1399 0008 F894      		cli
 1400 000a A895      		wdr
 1401 000c 8091 6000 		lds r24,96
 1402 0010 8861      		ori r24,24
 1403 0012 8093 6000 		sts 96,r24
 1404 0016 1092 6000 		sts 96,__zero_reg__
 1405 001a 0FBE      		out __SREG__,__tmp_reg__
 1406               		
 1407               	 ;  0 "" 2
 1408               	.LVL106:
 1409               	/* #NOAPP */
 1410               	.LBE350:
 1411               	.LBE349:
 1412               	.LBB351:
 1413               	.LBB352:
 1414               		.file 6 "c:\\avr-gcc-7.2.0-x64-mingw\\avr\\include\\avr\\power.h"
   1:c:\avr-gcc-7.2.0-x64-mingw\avr\include\avr\power.h **** /* Copyright (c) 2006, 2007, 2008  Eric B. Weddington
   2:c:\avr-gcc-7.2.0-x64-mingw\avr\include\avr\power.h ****    Copyright (c) 2011 Frdric Nadeau
   3:c:\avr-gcc-7.2.0-x64-mingw\avr\include\avr\power.h ****    All rights reserved.
   4:c:\avr-gcc-7.2.0-x64-mingw\avr\include\avr\power.h **** 
   5:c:\avr-gcc-7.2.0-x64-mingw\avr\include\avr\power.h ****    Redistribution and use in source and binary forms, with or without
   6:c:\avr-gcc-7.2.0-x64-mingw\avr\include\avr\power.h ****    modification, are permitted provided that the following conditions are met:
   7:c:\avr-gcc-7.2.0-x64-mingw\avr\include\avr\power.h **** 
   8:c:\avr-gcc-7.2.0-x64-mingw\avr\include\avr\power.h ****    * Redistributions of source code must retain the above copyright
   9:c:\avr-gcc-7.2.0-x64-mingw\avr\include\avr\power.h ****      notice, this list of conditions and the following disclaimer.
  10:c:\avr-gcc-7.2.0-x64-mingw\avr\include\avr\power.h ****    * Redistributions in binary form must reproduce the above copyright
  11:c:\avr-gcc-7.2.0-x64-mingw\avr\include\avr\power.h ****      notice, this list of conditions and the following disclaimer in
  12:c:\avr-gcc-7.2.0-x64-mingw\avr\include\avr\power.h ****      the documentation and/or other materials provided with the
  13:c:\avr-gcc-7.2.0-x64-mingw\avr\include\avr\power.h ****      distribution.
  14:c:\avr-gcc-7.2.0-x64-mingw\avr\include\avr\power.h ****    * Neither the name of the copyright holders nor the names of
  15:c:\avr-gcc-7.2.0-x64-mingw\avr\include\avr\power.h ****      contributors may be used to endorse or promote products derived
  16:c:\avr-gcc-7.2.0-x64-mingw\avr\include\avr\power.h ****      from this software without specific prior written permission.
  17:c:\avr-gcc-7.2.0-x64-mingw\avr\include\avr\power.h **** 
  18:c:\avr-gcc-7.2.0-x64-mingw\avr\include\avr\power.h ****   THIS SOFTWARE IS PROVIDED BY THE COPYRIGHT HOLDERS AND CONTRIBUTORS "AS IS"
  19:c:\avr-gcc-7.2.0-x64-mingw\avr\include\avr\power.h ****   AND ANY EXPRESS OR IMPLIED WARRANTIES, INCLUDING, BUT NOT LIMITED TO, THE
  20:c:\avr-gcc-7.2.0-x64-mingw\avr\include\avr\power.h ****   IMPLIED WARRANTIES OF MERCHANTABILITY AND FITNESS FOR A PARTICULAR PURPOSE
  21:c:\avr-gcc-7.2.0-x64-mingw\avr\include\avr\power.h ****   ARE DISCLAIMED. IN NO EVENT SHALL THE COPYRIGHT OWNER OR CONTRIBUTORS BE
  22:c:\avr-gcc-7.2.0-x64-mingw\avr\include\avr\power.h ****   LIABLE FOR ANY DIRECT, INDIRECT, INCIDENTAL, SPECIAL, EXEMPLARY, OR
  23:c:\avr-gcc-7.2.0-x64-mingw\avr\include\avr\power.h ****   CONSEQUENTIAL DAMAGES (INCLUDING, BUT NOT LIMITED TO, PROCUREMENT OF
  24:c:\avr-gcc-7.2.0-x64-mingw\avr\include\avr\power.h ****   SUBSTITUTE GOODS OR SERVICES; LOSS OF USE, DATA, OR PROFITS; OR BUSINESS
  25:c:\avr-gcc-7.2.0-x64-mingw\avr\include\avr\power.h ****   INTERRUPTION) HOWEVER CAUSED AND ON ANY THEORY OF LIABILITY, WHETHER IN
  26:c:\avr-gcc-7.2.0-x64-mingw\avr\include\avr\power.h ****   CONTRACT, STRICT LIABILITY, OR TORT (INCLUDING NEGLIGENCE OR OTHERWISE)
  27:c:\avr-gcc-7.2.0-x64-mingw\avr\include\avr\power.h ****   ARISING IN ANY WAY OUT OF THE USE OF THIS SOFTWARE, EVEN IF ADVISED OF THE
  28:c:\avr-gcc-7.2.0-x64-mingw\avr\include\avr\power.h ****   POSSIBILITY OF SUCH DAMAGE. */
  29:c:\avr-gcc-7.2.0-x64-mingw\avr\include\avr\power.h **** 
  30:c:\avr-gcc-7.2.0-x64-mingw\avr\include\avr\power.h **** /* $Id: power.h 2503 2016-02-07 22:59:47Z joerg_wunsch $ */
  31:c:\avr-gcc-7.2.0-x64-mingw\avr\include\avr\power.h **** 
  32:c:\avr-gcc-7.2.0-x64-mingw\avr\include\avr\power.h **** #ifndef _AVR_POWER_H_
  33:c:\avr-gcc-7.2.0-x64-mingw\avr\include\avr\power.h **** #define _AVR_POWER_H_   1
  34:c:\avr-gcc-7.2.0-x64-mingw\avr\include\avr\power.h **** 
  35:c:\avr-gcc-7.2.0-x64-mingw\avr\include\avr\power.h **** #include <avr/io.h>
  36:c:\avr-gcc-7.2.0-x64-mingw\avr\include\avr\power.h **** #include <stdint.h>
  37:c:\avr-gcc-7.2.0-x64-mingw\avr\include\avr\power.h **** 
  38:c:\avr-gcc-7.2.0-x64-mingw\avr\include\avr\power.h **** 
  39:c:\avr-gcc-7.2.0-x64-mingw\avr\include\avr\power.h **** /** \file */
  40:c:\avr-gcc-7.2.0-x64-mingw\avr\include\avr\power.h **** /** \defgroup avr_power <avr/power.h>: Power Reduction Management
  41:c:\avr-gcc-7.2.0-x64-mingw\avr\include\avr\power.h **** 
  42:c:\avr-gcc-7.2.0-x64-mingw\avr\include\avr\power.h **** \code #include <avr/power.h>\endcode
  43:c:\avr-gcc-7.2.0-x64-mingw\avr\include\avr\power.h **** 
  44:c:\avr-gcc-7.2.0-x64-mingw\avr\include\avr\power.h **** Many AVRs contain a Power Reduction Register (PRR) or Registers (PRRx) that 
  45:c:\avr-gcc-7.2.0-x64-mingw\avr\include\avr\power.h **** allow you to reduce power consumption by disabling or enabling various on-board 
  46:c:\avr-gcc-7.2.0-x64-mingw\avr\include\avr\power.h **** peripherals as needed. Some devices have the XTAL Divide Control Register
  47:c:\avr-gcc-7.2.0-x64-mingw\avr\include\avr\power.h **** (XDIV) which offer similar functionality as System Clock Prescale
  48:c:\avr-gcc-7.2.0-x64-mingw\avr\include\avr\power.h **** Register (CLKPR).
  49:c:\avr-gcc-7.2.0-x64-mingw\avr\include\avr\power.h **** 
  50:c:\avr-gcc-7.2.0-x64-mingw\avr\include\avr\power.h **** There are many macros in this header file that provide an easy interface
  51:c:\avr-gcc-7.2.0-x64-mingw\avr\include\avr\power.h **** to enable or disable on-board peripherals to reduce power. See the table below.
  52:c:\avr-gcc-7.2.0-x64-mingw\avr\include\avr\power.h **** 
  53:c:\avr-gcc-7.2.0-x64-mingw\avr\include\avr\power.h **** \note Not all AVR devices have a Power Reduction Register (for example
  54:c:\avr-gcc-7.2.0-x64-mingw\avr\include\avr\power.h **** the ATmega8). On those devices without a Power Reduction Register, the
  55:c:\avr-gcc-7.2.0-x64-mingw\avr\include\avr\power.h **** power reduction macros are not available..
  56:c:\avr-gcc-7.2.0-x64-mingw\avr\include\avr\power.h **** 
  57:c:\avr-gcc-7.2.0-x64-mingw\avr\include\avr\power.h **** \note Not all AVR devices contain the same peripherals (for example, the LCD
  58:c:\avr-gcc-7.2.0-x64-mingw\avr\include\avr\power.h **** interface), or they will be named differently (for example, USART and 
  59:c:\avr-gcc-7.2.0-x64-mingw\avr\include\avr\power.h **** USART0). Please consult your device's datasheet, or the header file, to 
  60:c:\avr-gcc-7.2.0-x64-mingw\avr\include\avr\power.h **** find out which macros are applicable to your device.
  61:c:\avr-gcc-7.2.0-x64-mingw\avr\include\avr\power.h **** 
  62:c:\avr-gcc-7.2.0-x64-mingw\avr\include\avr\power.h **** \note For device using the XTAL Divide Control Register (XDIV), when prescaler
  63:c:\avr-gcc-7.2.0-x64-mingw\avr\include\avr\power.h **** is used, Timer/Counter0 can only be used in asynchronous mode. Keep in mind
  64:c:\avr-gcc-7.2.0-x64-mingw\avr\include\avr\power.h **** that Timer/Counter0 source shall be less than th of peripheral clock.
  65:c:\avr-gcc-7.2.0-x64-mingw\avr\include\avr\power.h **** Therefore, when using a typical 32.768 kHz crystal, one shall not scale
  66:c:\avr-gcc-7.2.0-x64-mingw\avr\include\avr\power.h **** the clock below 131.072 kHz.
  67:c:\avr-gcc-7.2.0-x64-mingw\avr\include\avr\power.h **** 
  68:c:\avr-gcc-7.2.0-x64-mingw\avr\include\avr\power.h **** */
  69:c:\avr-gcc-7.2.0-x64-mingw\avr\include\avr\power.h **** 
  70:c:\avr-gcc-7.2.0-x64-mingw\avr\include\avr\power.h **** 
  71:c:\avr-gcc-7.2.0-x64-mingw\avr\include\avr\power.h **** /** \addtogroup avr_power
  72:c:\avr-gcc-7.2.0-x64-mingw\avr\include\avr\power.h **** 
  73:c:\avr-gcc-7.2.0-x64-mingw\avr\include\avr\power.h **** \anchor avr_powermacros
  74:c:\avr-gcc-7.2.0-x64-mingw\avr\include\avr\power.h **** <small>
  75:c:\avr-gcc-7.2.0-x64-mingw\avr\include\avr\power.h **** <center>
  76:c:\avr-gcc-7.2.0-x64-mingw\avr\include\avr\power.h **** <table border="3">
  77:c:\avr-gcc-7.2.0-x64-mingw\avr\include\avr\power.h ****   <tr>
  78:c:\avr-gcc-7.2.0-x64-mingw\avr\include\avr\power.h ****     <td width="10%"><strong>Power Macro</strong></td>
  79:c:\avr-gcc-7.2.0-x64-mingw\avr\include\avr\power.h ****     <td width="15%"><strong>Description</strong></td>
  80:c:\avr-gcc-7.2.0-x64-mingw\avr\include\avr\power.h ****   </tr>
  81:c:\avr-gcc-7.2.0-x64-mingw\avr\include\avr\power.h **** 
  82:c:\avr-gcc-7.2.0-x64-mingw\avr\include\avr\power.h ****   <tr>
  83:c:\avr-gcc-7.2.0-x64-mingw\avr\include\avr\power.h ****     <td>power_aca_disable()</td>
  84:c:\avr-gcc-7.2.0-x64-mingw\avr\include\avr\power.h ****     <td>Disable the Analog Comparator on PortA.</td>
  85:c:\avr-gcc-7.2.0-x64-mingw\avr\include\avr\power.h ****   </tr>
  86:c:\avr-gcc-7.2.0-x64-mingw\avr\include\avr\power.h **** 
  87:c:\avr-gcc-7.2.0-x64-mingw\avr\include\avr\power.h ****   <tr>
  88:c:\avr-gcc-7.2.0-x64-mingw\avr\include\avr\power.h ****     <td>power_aca_enable()</td>
  89:c:\avr-gcc-7.2.0-x64-mingw\avr\include\avr\power.h ****     <td>Enable the Analog Comparator on PortA.</td>
  90:c:\avr-gcc-7.2.0-x64-mingw\avr\include\avr\power.h ****   </tr>
  91:c:\avr-gcc-7.2.0-x64-mingw\avr\include\avr\power.h **** 
  92:c:\avr-gcc-7.2.0-x64-mingw\avr\include\avr\power.h ****   <tr>
  93:c:\avr-gcc-7.2.0-x64-mingw\avr\include\avr\power.h ****     <td>power_adc_enable()</td>
  94:c:\avr-gcc-7.2.0-x64-mingw\avr\include\avr\power.h ****     <td>Enable the Analog to Digital Converter module.</td>
  95:c:\avr-gcc-7.2.0-x64-mingw\avr\include\avr\power.h ****   </tr>
  96:c:\avr-gcc-7.2.0-x64-mingw\avr\include\avr\power.h **** 
  97:c:\avr-gcc-7.2.0-x64-mingw\avr\include\avr\power.h ****   <tr>
  98:c:\avr-gcc-7.2.0-x64-mingw\avr\include\avr\power.h ****     <td>power_adc_disable()</td>
  99:c:\avr-gcc-7.2.0-x64-mingw\avr\include\avr\power.h ****     <td>Disable the Analog to Digital Converter module.</td>
 100:c:\avr-gcc-7.2.0-x64-mingw\avr\include\avr\power.h ****   </tr>
 101:c:\avr-gcc-7.2.0-x64-mingw\avr\include\avr\power.h **** 
 102:c:\avr-gcc-7.2.0-x64-mingw\avr\include\avr\power.h ****   <tr>
 103:c:\avr-gcc-7.2.0-x64-mingw\avr\include\avr\power.h ****     <td>power_adca_disable()</td>
 104:c:\avr-gcc-7.2.0-x64-mingw\avr\include\avr\power.h ****     <td>Disable the Analog to Digital Converter module on PortA</td>
 105:c:\avr-gcc-7.2.0-x64-mingw\avr\include\avr\power.h ****   </tr>
 106:c:\avr-gcc-7.2.0-x64-mingw\avr\include\avr\power.h **** 
 107:c:\avr-gcc-7.2.0-x64-mingw\avr\include\avr\power.h ****   <tr>
 108:c:\avr-gcc-7.2.0-x64-mingw\avr\include\avr\power.h ****     <td>power_adca_enable()</td>
 109:c:\avr-gcc-7.2.0-x64-mingw\avr\include\avr\power.h ****     <td>Enable the Analog to Digital Converter module on PortA</td>
 110:c:\avr-gcc-7.2.0-x64-mingw\avr\include\avr\power.h ****   </tr>
 111:c:\avr-gcc-7.2.0-x64-mingw\avr\include\avr\power.h **** 
 112:c:\avr-gcc-7.2.0-x64-mingw\avr\include\avr\power.h ****   <tr>
 113:c:\avr-gcc-7.2.0-x64-mingw\avr\include\avr\power.h ****     <td>power_evsys_disable()</td>
 114:c:\avr-gcc-7.2.0-x64-mingw\avr\include\avr\power.h ****     <td>Disable the EVSYS module</td>
 115:c:\avr-gcc-7.2.0-x64-mingw\avr\include\avr\power.h ****   </tr>
 116:c:\avr-gcc-7.2.0-x64-mingw\avr\include\avr\power.h **** 
 117:c:\avr-gcc-7.2.0-x64-mingw\avr\include\avr\power.h ****   <tr>
 118:c:\avr-gcc-7.2.0-x64-mingw\avr\include\avr\power.h ****     <td>power_evsys_enable()</td>
 119:c:\avr-gcc-7.2.0-x64-mingw\avr\include\avr\power.h ****     <td>Enable the EVSYS module</td>
 120:c:\avr-gcc-7.2.0-x64-mingw\avr\include\avr\power.h ****   </tr>
 121:c:\avr-gcc-7.2.0-x64-mingw\avr\include\avr\power.h **** 
 122:c:\avr-gcc-7.2.0-x64-mingw\avr\include\avr\power.h ****   <tr>
 123:c:\avr-gcc-7.2.0-x64-mingw\avr\include\avr\power.h ****     <td>power_hiresc_disable()</td>
 124:c:\avr-gcc-7.2.0-x64-mingw\avr\include\avr\power.h ****     <td>Disable the HIRES module on PortC</td>
 125:c:\avr-gcc-7.2.0-x64-mingw\avr\include\avr\power.h ****   </tr>
 126:c:\avr-gcc-7.2.0-x64-mingw\avr\include\avr\power.h **** 
 127:c:\avr-gcc-7.2.0-x64-mingw\avr\include\avr\power.h ****   <tr>
 128:c:\avr-gcc-7.2.0-x64-mingw\avr\include\avr\power.h ****     <td>power_hiresc_enable()</td>
 129:c:\avr-gcc-7.2.0-x64-mingw\avr\include\avr\power.h ****     <td>Enable the HIRES module on PortC</td>
 130:c:\avr-gcc-7.2.0-x64-mingw\avr\include\avr\power.h ****   </tr>
 131:c:\avr-gcc-7.2.0-x64-mingw\avr\include\avr\power.h **** 
 132:c:\avr-gcc-7.2.0-x64-mingw\avr\include\avr\power.h ****    <tr>
 133:c:\avr-gcc-7.2.0-x64-mingw\avr\include\avr\power.h ****     <td>power_lcd_enable()</td>
 134:c:\avr-gcc-7.2.0-x64-mingw\avr\include\avr\power.h ****     <td>Enable the LCD module.</td>
 135:c:\avr-gcc-7.2.0-x64-mingw\avr\include\avr\power.h ****   </tr>
 136:c:\avr-gcc-7.2.0-x64-mingw\avr\include\avr\power.h **** 
 137:c:\avr-gcc-7.2.0-x64-mingw\avr\include\avr\power.h ****   <tr>
 138:c:\avr-gcc-7.2.0-x64-mingw\avr\include\avr\power.h ****     <td>power_lcd_disable().</td>
 139:c:\avr-gcc-7.2.0-x64-mingw\avr\include\avr\power.h ****     <td>Disable the LCD module.</td>
 140:c:\avr-gcc-7.2.0-x64-mingw\avr\include\avr\power.h ****   </tr>
 141:c:\avr-gcc-7.2.0-x64-mingw\avr\include\avr\power.h **** 
 142:c:\avr-gcc-7.2.0-x64-mingw\avr\include\avr\power.h ****   <tr>
 143:c:\avr-gcc-7.2.0-x64-mingw\avr\include\avr\power.h ****     <td>power_pga_enable()</td>
 144:c:\avr-gcc-7.2.0-x64-mingw\avr\include\avr\power.h ****     <td>Enable the Programmable Gain Amplifier module.</td>
 145:c:\avr-gcc-7.2.0-x64-mingw\avr\include\avr\power.h ****   </tr>
 146:c:\avr-gcc-7.2.0-x64-mingw\avr\include\avr\power.h **** 
 147:c:\avr-gcc-7.2.0-x64-mingw\avr\include\avr\power.h ****   <tr>
 148:c:\avr-gcc-7.2.0-x64-mingw\avr\include\avr\power.h ****     <td>power_pga_disable()</td>
 149:c:\avr-gcc-7.2.0-x64-mingw\avr\include\avr\power.h ****     <td>Disable the Programmable Gain Amplifier module.</td>
 150:c:\avr-gcc-7.2.0-x64-mingw\avr\include\avr\power.h ****   </tr>
 151:c:\avr-gcc-7.2.0-x64-mingw\avr\include\avr\power.h ****   
 152:c:\avr-gcc-7.2.0-x64-mingw\avr\include\avr\power.h ****   <tr>
 153:c:\avr-gcc-7.2.0-x64-mingw\avr\include\avr\power.h ****     <td>power_pscr_enable()</td>
 154:c:\avr-gcc-7.2.0-x64-mingw\avr\include\avr\power.h ****     <td>Enable the Reduced Power Stage Controller module.</td>
 155:c:\avr-gcc-7.2.0-x64-mingw\avr\include\avr\power.h ****   </tr>
 156:c:\avr-gcc-7.2.0-x64-mingw\avr\include\avr\power.h **** 
 157:c:\avr-gcc-7.2.0-x64-mingw\avr\include\avr\power.h ****   <tr>
 158:c:\avr-gcc-7.2.0-x64-mingw\avr\include\avr\power.h ****     <td>power_pscr_disable()</td>
 159:c:\avr-gcc-7.2.0-x64-mingw\avr\include\avr\power.h ****     <td>Disable the Reduced Power Stage Controller module.</td>
 160:c:\avr-gcc-7.2.0-x64-mingw\avr\include\avr\power.h ****   </tr>
 161:c:\avr-gcc-7.2.0-x64-mingw\avr\include\avr\power.h **** 
 162:c:\avr-gcc-7.2.0-x64-mingw\avr\include\avr\power.h ****   <tr>
 163:c:\avr-gcc-7.2.0-x64-mingw\avr\include\avr\power.h ****     <td>power_psc0_enable()</td>
 164:c:\avr-gcc-7.2.0-x64-mingw\avr\include\avr\power.h ****     <td>Enable the Power Stage Controller 0 module.</td>
 165:c:\avr-gcc-7.2.0-x64-mingw\avr\include\avr\power.h ****   </tr>
 166:c:\avr-gcc-7.2.0-x64-mingw\avr\include\avr\power.h **** 
 167:c:\avr-gcc-7.2.0-x64-mingw\avr\include\avr\power.h ****   <tr>
 168:c:\avr-gcc-7.2.0-x64-mingw\avr\include\avr\power.h ****     <td>power_psc0_disable()</td>
 169:c:\avr-gcc-7.2.0-x64-mingw\avr\include\avr\power.h ****     <td>Disable the Power Stage Controller 0 module.</td>
 170:c:\avr-gcc-7.2.0-x64-mingw\avr\include\avr\power.h ****   </tr>
 171:c:\avr-gcc-7.2.0-x64-mingw\avr\include\avr\power.h **** 
 172:c:\avr-gcc-7.2.0-x64-mingw\avr\include\avr\power.h ****   <tr>
 173:c:\avr-gcc-7.2.0-x64-mingw\avr\include\avr\power.h ****     <td>power_psc1_enable()</td>
 174:c:\avr-gcc-7.2.0-x64-mingw\avr\include\avr\power.h ****     <td>Enable the Power Stage Controller 1 module.</td>
 175:c:\avr-gcc-7.2.0-x64-mingw\avr\include\avr\power.h ****   </tr>
 176:c:\avr-gcc-7.2.0-x64-mingw\avr\include\avr\power.h **** 
 177:c:\avr-gcc-7.2.0-x64-mingw\avr\include\avr\power.h ****   <tr>
 178:c:\avr-gcc-7.2.0-x64-mingw\avr\include\avr\power.h ****     <td>power_psc1_disable()</td>
 179:c:\avr-gcc-7.2.0-x64-mingw\avr\include\avr\power.h ****     <td>Disable the Power Stage Controller 1 module.</td>
 180:c:\avr-gcc-7.2.0-x64-mingw\avr\include\avr\power.h ****   </tr>
 181:c:\avr-gcc-7.2.0-x64-mingw\avr\include\avr\power.h **** 
 182:c:\avr-gcc-7.2.0-x64-mingw\avr\include\avr\power.h ****   <tr>
 183:c:\avr-gcc-7.2.0-x64-mingw\avr\include\avr\power.h ****     <td>power_psc2_enable()</td>
 184:c:\avr-gcc-7.2.0-x64-mingw\avr\include\avr\power.h ****     <td>Enable the Power Stage Controller 2 module.</td>
 185:c:\avr-gcc-7.2.0-x64-mingw\avr\include\avr\power.h ****   </tr>
 186:c:\avr-gcc-7.2.0-x64-mingw\avr\include\avr\power.h **** 
 187:c:\avr-gcc-7.2.0-x64-mingw\avr\include\avr\power.h ****   <tr>
 188:c:\avr-gcc-7.2.0-x64-mingw\avr\include\avr\power.h ****     <td>power_psc2_disable()</td>
 189:c:\avr-gcc-7.2.0-x64-mingw\avr\include\avr\power.h ****     <td>Disable the Power Stage Controller 2 module.</td>
 190:c:\avr-gcc-7.2.0-x64-mingw\avr\include\avr\power.h ****   </tr>
 191:c:\avr-gcc-7.2.0-x64-mingw\avr\include\avr\power.h **** 
 192:c:\avr-gcc-7.2.0-x64-mingw\avr\include\avr\power.h ****   <tr>
 193:c:\avr-gcc-7.2.0-x64-mingw\avr\include\avr\power.h ****     <td>power_ram0_enable()</td>
 194:c:\avr-gcc-7.2.0-x64-mingw\avr\include\avr\power.h ****     <td>Enable the SRAM block 0 .</td>
 195:c:\avr-gcc-7.2.0-x64-mingw\avr\include\avr\power.h ****   </tr>
 196:c:\avr-gcc-7.2.0-x64-mingw\avr\include\avr\power.h **** 
 197:c:\avr-gcc-7.2.0-x64-mingw\avr\include\avr\power.h ****   <tr>
 198:c:\avr-gcc-7.2.0-x64-mingw\avr\include\avr\power.h ****     <td>power_ram0_disable()</td>
 199:c:\avr-gcc-7.2.0-x64-mingw\avr\include\avr\power.h ****     <td>Disable the SRAM block 0. </td>
 200:c:\avr-gcc-7.2.0-x64-mingw\avr\include\avr\power.h ****   </tr>
 201:c:\avr-gcc-7.2.0-x64-mingw\avr\include\avr\power.h **** 
 202:c:\avr-gcc-7.2.0-x64-mingw\avr\include\avr\power.h ****   <tr>
 203:c:\avr-gcc-7.2.0-x64-mingw\avr\include\avr\power.h ****     <td>power_ram1_enable()</td>
 204:c:\avr-gcc-7.2.0-x64-mingw\avr\include\avr\power.h ****     <td>Enable the SRAM block 1 .</td>
 205:c:\avr-gcc-7.2.0-x64-mingw\avr\include\avr\power.h ****   </tr>
 206:c:\avr-gcc-7.2.0-x64-mingw\avr\include\avr\power.h **** 
 207:c:\avr-gcc-7.2.0-x64-mingw\avr\include\avr\power.h ****   <tr>
 208:c:\avr-gcc-7.2.0-x64-mingw\avr\include\avr\power.h ****     <td>power_ram1_disable()</td>
 209:c:\avr-gcc-7.2.0-x64-mingw\avr\include\avr\power.h ****     <td>Disable the SRAM block 1. </td>
 210:c:\avr-gcc-7.2.0-x64-mingw\avr\include\avr\power.h ****   </tr>
 211:c:\avr-gcc-7.2.0-x64-mingw\avr\include\avr\power.h **** 
 212:c:\avr-gcc-7.2.0-x64-mingw\avr\include\avr\power.h ****   <tr>
 213:c:\avr-gcc-7.2.0-x64-mingw\avr\include\avr\power.h ****     <td>power_ram2_enable()</td>
 214:c:\avr-gcc-7.2.0-x64-mingw\avr\include\avr\power.h ****     <td>Enable the SRAM block 2 .</td>
 215:c:\avr-gcc-7.2.0-x64-mingw\avr\include\avr\power.h ****   </tr>
 216:c:\avr-gcc-7.2.0-x64-mingw\avr\include\avr\power.h **** 
 217:c:\avr-gcc-7.2.0-x64-mingw\avr\include\avr\power.h ****   <tr>
 218:c:\avr-gcc-7.2.0-x64-mingw\avr\include\avr\power.h ****     <td>power_ram2_disable()</td>
 219:c:\avr-gcc-7.2.0-x64-mingw\avr\include\avr\power.h ****     <td>Disable the SRAM block 2. </td>
 220:c:\avr-gcc-7.2.0-x64-mingw\avr\include\avr\power.h ****   </tr>
 221:c:\avr-gcc-7.2.0-x64-mingw\avr\include\avr\power.h **** 
 222:c:\avr-gcc-7.2.0-x64-mingw\avr\include\avr\power.h ****   <tr>
 223:c:\avr-gcc-7.2.0-x64-mingw\avr\include\avr\power.h ****     <td>power_ram3_enable()</td>
 224:c:\avr-gcc-7.2.0-x64-mingw\avr\include\avr\power.h ****     <td>Enable the SRAM block 3 .</td>
 225:c:\avr-gcc-7.2.0-x64-mingw\avr\include\avr\power.h ****   </tr>
 226:c:\avr-gcc-7.2.0-x64-mingw\avr\include\avr\power.h **** 
 227:c:\avr-gcc-7.2.0-x64-mingw\avr\include\avr\power.h ****   <tr>
 228:c:\avr-gcc-7.2.0-x64-mingw\avr\include\avr\power.h ****     <td>power_ram3_disable()</td>
 229:c:\avr-gcc-7.2.0-x64-mingw\avr\include\avr\power.h ****     <td>Disable the SRAM block 3. </td>
 230:c:\avr-gcc-7.2.0-x64-mingw\avr\include\avr\power.h ****   </tr>
 231:c:\avr-gcc-7.2.0-x64-mingw\avr\include\avr\power.h **** 
 232:c:\avr-gcc-7.2.0-x64-mingw\avr\include\avr\power.h ****   <tr>
 233:c:\avr-gcc-7.2.0-x64-mingw\avr\include\avr\power.h ****     <td>power_rtc_disable()</td>
 234:c:\avr-gcc-7.2.0-x64-mingw\avr\include\avr\power.h ****     <td>Disable the RTC module</td>
 235:c:\avr-gcc-7.2.0-x64-mingw\avr\include\avr\power.h ****   </tr>
 236:c:\avr-gcc-7.2.0-x64-mingw\avr\include\avr\power.h **** 
 237:c:\avr-gcc-7.2.0-x64-mingw\avr\include\avr\power.h ****   <tr>
 238:c:\avr-gcc-7.2.0-x64-mingw\avr\include\avr\power.h ****     <td>power_rtc_enable()</td>
 239:c:\avr-gcc-7.2.0-x64-mingw\avr\include\avr\power.h ****     <td>Enable the RTC module</td>
 240:c:\avr-gcc-7.2.0-x64-mingw\avr\include\avr\power.h ****   </tr>
 241:c:\avr-gcc-7.2.0-x64-mingw\avr\include\avr\power.h **** 
 242:c:\avr-gcc-7.2.0-x64-mingw\avr\include\avr\power.h ****   <tr>
 243:c:\avr-gcc-7.2.0-x64-mingw\avr\include\avr\power.h ****     <td>power_spi_enable()</td>
 244:c:\avr-gcc-7.2.0-x64-mingw\avr\include\avr\power.h ****     <td>Enable the Serial Peripheral Interface module.</td>
 245:c:\avr-gcc-7.2.0-x64-mingw\avr\include\avr\power.h ****   </tr>
 246:c:\avr-gcc-7.2.0-x64-mingw\avr\include\avr\power.h **** 
 247:c:\avr-gcc-7.2.0-x64-mingw\avr\include\avr\power.h ****   <tr>
 248:c:\avr-gcc-7.2.0-x64-mingw\avr\include\avr\power.h ****     <td>power_spi_disable()</td>
 249:c:\avr-gcc-7.2.0-x64-mingw\avr\include\avr\power.h ****     <td>Disable the Serial Peripheral Interface module.</td>
 250:c:\avr-gcc-7.2.0-x64-mingw\avr\include\avr\power.h ****   </tr>
 251:c:\avr-gcc-7.2.0-x64-mingw\avr\include\avr\power.h **** 
 252:c:\avr-gcc-7.2.0-x64-mingw\avr\include\avr\power.h ****   <tr>
 253:c:\avr-gcc-7.2.0-x64-mingw\avr\include\avr\power.h ****     <td>power_spic_disable()</td>
 254:c:\avr-gcc-7.2.0-x64-mingw\avr\include\avr\power.h ****     <td>Disable the SPI module on PortC</td>
 255:c:\avr-gcc-7.2.0-x64-mingw\avr\include\avr\power.h ****   </tr>
 256:c:\avr-gcc-7.2.0-x64-mingw\avr\include\avr\power.h **** 
 257:c:\avr-gcc-7.2.0-x64-mingw\avr\include\avr\power.h ****   <tr>
 258:c:\avr-gcc-7.2.0-x64-mingw\avr\include\avr\power.h ****     <td>power_spic_enable()</td>
 259:c:\avr-gcc-7.2.0-x64-mingw\avr\include\avr\power.h ****     <td>Enable the SPI module on PortC</td>
 260:c:\avr-gcc-7.2.0-x64-mingw\avr\include\avr\power.h ****   </tr>
 261:c:\avr-gcc-7.2.0-x64-mingw\avr\include\avr\power.h **** 
 262:c:\avr-gcc-7.2.0-x64-mingw\avr\include\avr\power.h ****   <tr>
 263:c:\avr-gcc-7.2.0-x64-mingw\avr\include\avr\power.h ****     <td>power_spid_disable()</td>
 264:c:\avr-gcc-7.2.0-x64-mingw\avr\include\avr\power.h ****     <td>Disable the SPI module on PortD</td>
 265:c:\avr-gcc-7.2.0-x64-mingw\avr\include\avr\power.h ****   </tr>
 266:c:\avr-gcc-7.2.0-x64-mingw\avr\include\avr\power.h **** 
 267:c:\avr-gcc-7.2.0-x64-mingw\avr\include\avr\power.h ****   <tr>
 268:c:\avr-gcc-7.2.0-x64-mingw\avr\include\avr\power.h ****     <td>power_spid_enable()</td>
 269:c:\avr-gcc-7.2.0-x64-mingw\avr\include\avr\power.h ****     <td>Enable the SPI module on PortD</td>
 270:c:\avr-gcc-7.2.0-x64-mingw\avr\include\avr\power.h ****   </tr>
 271:c:\avr-gcc-7.2.0-x64-mingw\avr\include\avr\power.h **** 
 272:c:\avr-gcc-7.2.0-x64-mingw\avr\include\avr\power.h ****   <tr>
 273:c:\avr-gcc-7.2.0-x64-mingw\avr\include\avr\power.h ****     <td>power_tc0c_disable()</td>
 274:c:\avr-gcc-7.2.0-x64-mingw\avr\include\avr\power.h ****     <td>Disable the TC0 module on PortC</td>
 275:c:\avr-gcc-7.2.0-x64-mingw\avr\include\avr\power.h ****   </tr>
 276:c:\avr-gcc-7.2.0-x64-mingw\avr\include\avr\power.h **** 
 277:c:\avr-gcc-7.2.0-x64-mingw\avr\include\avr\power.h ****   <tr>
 278:c:\avr-gcc-7.2.0-x64-mingw\avr\include\avr\power.h ****     <td>power_tc0c_enable()</td>
 279:c:\avr-gcc-7.2.0-x64-mingw\avr\include\avr\power.h ****     <td>Enable the TC0 module on PortC</td>
 280:c:\avr-gcc-7.2.0-x64-mingw\avr\include\avr\power.h ****   </tr>
 281:c:\avr-gcc-7.2.0-x64-mingw\avr\include\avr\power.h **** 
 282:c:\avr-gcc-7.2.0-x64-mingw\avr\include\avr\power.h ****   <tr>
 283:c:\avr-gcc-7.2.0-x64-mingw\avr\include\avr\power.h ****     <td>power_tc0d_disable()</td>
 284:c:\avr-gcc-7.2.0-x64-mingw\avr\include\avr\power.h ****     <td>Disable the TC0 module on PortD</td>
 285:c:\avr-gcc-7.2.0-x64-mingw\avr\include\avr\power.h ****   </tr>
 286:c:\avr-gcc-7.2.0-x64-mingw\avr\include\avr\power.h **** 
 287:c:\avr-gcc-7.2.0-x64-mingw\avr\include\avr\power.h ****   <tr>
 288:c:\avr-gcc-7.2.0-x64-mingw\avr\include\avr\power.h ****     <td>power_tc0d_enable()</td>
 289:c:\avr-gcc-7.2.0-x64-mingw\avr\include\avr\power.h ****     <td>Enable the TC0 module on PortD</td>
 290:c:\avr-gcc-7.2.0-x64-mingw\avr\include\avr\power.h ****   </tr>
 291:c:\avr-gcc-7.2.0-x64-mingw\avr\include\avr\power.h **** 
 292:c:\avr-gcc-7.2.0-x64-mingw\avr\include\avr\power.h ****   <tr>
 293:c:\avr-gcc-7.2.0-x64-mingw\avr\include\avr\power.h ****     <td>power_tc0e_disable()</td>
 294:c:\avr-gcc-7.2.0-x64-mingw\avr\include\avr\power.h ****     <td>Disable the TC0 module on PortE</td>
 295:c:\avr-gcc-7.2.0-x64-mingw\avr\include\avr\power.h ****   </tr>
 296:c:\avr-gcc-7.2.0-x64-mingw\avr\include\avr\power.h **** 
 297:c:\avr-gcc-7.2.0-x64-mingw\avr\include\avr\power.h ****   <tr>
 298:c:\avr-gcc-7.2.0-x64-mingw\avr\include\avr\power.h ****     <td>power_tc0e_enable()</td>
 299:c:\avr-gcc-7.2.0-x64-mingw\avr\include\avr\power.h ****     <td>Enable the TC0 module on PortE</td>
 300:c:\avr-gcc-7.2.0-x64-mingw\avr\include\avr\power.h ****   </tr>
 301:c:\avr-gcc-7.2.0-x64-mingw\avr\include\avr\power.h **** 
 302:c:\avr-gcc-7.2.0-x64-mingw\avr\include\avr\power.h ****   <tr>
 303:c:\avr-gcc-7.2.0-x64-mingw\avr\include\avr\power.h ****     <td>power_tc0f_disable()</td>
 304:c:\avr-gcc-7.2.0-x64-mingw\avr\include\avr\power.h ****     <td>Disable the TC0 module on PortF</td>
 305:c:\avr-gcc-7.2.0-x64-mingw\avr\include\avr\power.h ****   </tr>
 306:c:\avr-gcc-7.2.0-x64-mingw\avr\include\avr\power.h **** 
 307:c:\avr-gcc-7.2.0-x64-mingw\avr\include\avr\power.h ****   <tr>
 308:c:\avr-gcc-7.2.0-x64-mingw\avr\include\avr\power.h ****     <td>power_tc0f_enable()</td>
 309:c:\avr-gcc-7.2.0-x64-mingw\avr\include\avr\power.h ****     <td>Enable the TC0 module on PortF</td>
 310:c:\avr-gcc-7.2.0-x64-mingw\avr\include\avr\power.h ****   </tr>
 311:c:\avr-gcc-7.2.0-x64-mingw\avr\include\avr\power.h **** 
 312:c:\avr-gcc-7.2.0-x64-mingw\avr\include\avr\power.h ****   <tr>
 313:c:\avr-gcc-7.2.0-x64-mingw\avr\include\avr\power.h ****     <td>power_tc1c_disable()</td>
 314:c:\avr-gcc-7.2.0-x64-mingw\avr\include\avr\power.h ****     <td>Disable the TC1 module on PortC</td>
 315:c:\avr-gcc-7.2.0-x64-mingw\avr\include\avr\power.h ****   </tr>
 316:c:\avr-gcc-7.2.0-x64-mingw\avr\include\avr\power.h **** 
 317:c:\avr-gcc-7.2.0-x64-mingw\avr\include\avr\power.h ****   <tr>
 318:c:\avr-gcc-7.2.0-x64-mingw\avr\include\avr\power.h ****     <td>power_tc1c_enable()</td>
 319:c:\avr-gcc-7.2.0-x64-mingw\avr\include\avr\power.h ****     <td>Enable the TC1 module on PortC</td>
 320:c:\avr-gcc-7.2.0-x64-mingw\avr\include\avr\power.h ****   </tr>
 321:c:\avr-gcc-7.2.0-x64-mingw\avr\include\avr\power.h **** 
 322:c:\avr-gcc-7.2.0-x64-mingw\avr\include\avr\power.h ****   <tr>
 323:c:\avr-gcc-7.2.0-x64-mingw\avr\include\avr\power.h ****     <td>power_twic_disable()</td>
 324:c:\avr-gcc-7.2.0-x64-mingw\avr\include\avr\power.h ****     <td>Disable the Two Wire Interface module on PortC</td>
 325:c:\avr-gcc-7.2.0-x64-mingw\avr\include\avr\power.h ****   </tr>
 326:c:\avr-gcc-7.2.0-x64-mingw\avr\include\avr\power.h **** 
 327:c:\avr-gcc-7.2.0-x64-mingw\avr\include\avr\power.h ****   <tr>
 328:c:\avr-gcc-7.2.0-x64-mingw\avr\include\avr\power.h ****     <td>power_twic_enable()</td>
 329:c:\avr-gcc-7.2.0-x64-mingw\avr\include\avr\power.h ****     <td>Enable the Two Wire Interface module on PortC</td>
 330:c:\avr-gcc-7.2.0-x64-mingw\avr\include\avr\power.h ****   </tr>
 331:c:\avr-gcc-7.2.0-x64-mingw\avr\include\avr\power.h **** 
 332:c:\avr-gcc-7.2.0-x64-mingw\avr\include\avr\power.h ****   <tr>
 333:c:\avr-gcc-7.2.0-x64-mingw\avr\include\avr\power.h ****     <td>power_twie_disable()</td>
 334:c:\avr-gcc-7.2.0-x64-mingw\avr\include\avr\power.h ****     <td>Disable the Two Wire Interface module on PortE</td>
 335:c:\avr-gcc-7.2.0-x64-mingw\avr\include\avr\power.h ****   </tr>
 336:c:\avr-gcc-7.2.0-x64-mingw\avr\include\avr\power.h **** 
 337:c:\avr-gcc-7.2.0-x64-mingw\avr\include\avr\power.h ****   <tr>
 338:c:\avr-gcc-7.2.0-x64-mingw\avr\include\avr\power.h ****     <td>power_twie_enable()</td>
 339:c:\avr-gcc-7.2.0-x64-mingw\avr\include\avr\power.h ****     <td>Enable the Two Wire Interface module on PortE</td>
 340:c:\avr-gcc-7.2.0-x64-mingw\avr\include\avr\power.h ****   </tr>
 341:c:\avr-gcc-7.2.0-x64-mingw\avr\include\avr\power.h **** 
 342:c:\avr-gcc-7.2.0-x64-mingw\avr\include\avr\power.h ****   <tr>
 343:c:\avr-gcc-7.2.0-x64-mingw\avr\include\avr\power.h ****     <td>power_timer0_enable()</td>
 344:c:\avr-gcc-7.2.0-x64-mingw\avr\include\avr\power.h ****     <td>Enable the Timer 0 module.</td>
 345:c:\avr-gcc-7.2.0-x64-mingw\avr\include\avr\power.h ****   </tr>
 346:c:\avr-gcc-7.2.0-x64-mingw\avr\include\avr\power.h **** 
 347:c:\avr-gcc-7.2.0-x64-mingw\avr\include\avr\power.h ****   <tr>
 348:c:\avr-gcc-7.2.0-x64-mingw\avr\include\avr\power.h ****     <td>power_timer0_disable()</td>
 349:c:\avr-gcc-7.2.0-x64-mingw\avr\include\avr\power.h ****     <td>Disable the Timer 0 module.</td>
 350:c:\avr-gcc-7.2.0-x64-mingw\avr\include\avr\power.h ****   </tr>
 351:c:\avr-gcc-7.2.0-x64-mingw\avr\include\avr\power.h **** 
 352:c:\avr-gcc-7.2.0-x64-mingw\avr\include\avr\power.h ****   <tr>
 353:c:\avr-gcc-7.2.0-x64-mingw\avr\include\avr\power.h ****     <td>power_timer1_enable()</td>
 354:c:\avr-gcc-7.2.0-x64-mingw\avr\include\avr\power.h ****     <td>Enable the Timer 1 module.</td>
 355:c:\avr-gcc-7.2.0-x64-mingw\avr\include\avr\power.h ****   </tr>
 356:c:\avr-gcc-7.2.0-x64-mingw\avr\include\avr\power.h **** 
 357:c:\avr-gcc-7.2.0-x64-mingw\avr\include\avr\power.h ****   <tr>
 358:c:\avr-gcc-7.2.0-x64-mingw\avr\include\avr\power.h ****     <td>power_timer1_disable()</td>
 359:c:\avr-gcc-7.2.0-x64-mingw\avr\include\avr\power.h ****     <td>Disable the Timer 1 module.</td>
 360:c:\avr-gcc-7.2.0-x64-mingw\avr\include\avr\power.h ****   </tr>
 361:c:\avr-gcc-7.2.0-x64-mingw\avr\include\avr\power.h **** 
 362:c:\avr-gcc-7.2.0-x64-mingw\avr\include\avr\power.h ****   <tr>
 363:c:\avr-gcc-7.2.0-x64-mingw\avr\include\avr\power.h ****     <td>power_timer2_enable()</td>
 364:c:\avr-gcc-7.2.0-x64-mingw\avr\include\avr\power.h ****     <td>Enable the Timer 2 module.</td>
 365:c:\avr-gcc-7.2.0-x64-mingw\avr\include\avr\power.h ****   </tr>
 366:c:\avr-gcc-7.2.0-x64-mingw\avr\include\avr\power.h **** 
 367:c:\avr-gcc-7.2.0-x64-mingw\avr\include\avr\power.h ****   <tr>
 368:c:\avr-gcc-7.2.0-x64-mingw\avr\include\avr\power.h ****     <td>power_timer2_disable()</td>
 369:c:\avr-gcc-7.2.0-x64-mingw\avr\include\avr\power.h ****     <td>Disable the Timer 2 module.</td>
 370:c:\avr-gcc-7.2.0-x64-mingw\avr\include\avr\power.h ****   </tr>
 371:c:\avr-gcc-7.2.0-x64-mingw\avr\include\avr\power.h **** 
 372:c:\avr-gcc-7.2.0-x64-mingw\avr\include\avr\power.h ****   <tr>
 373:c:\avr-gcc-7.2.0-x64-mingw\avr\include\avr\power.h ****     <td>power_timer3_enable()</td>
 374:c:\avr-gcc-7.2.0-x64-mingw\avr\include\avr\power.h ****     <td>Enable the Timer 3 module.</td>
 375:c:\avr-gcc-7.2.0-x64-mingw\avr\include\avr\power.h ****   </tr>
 376:c:\avr-gcc-7.2.0-x64-mingw\avr\include\avr\power.h **** 
 377:c:\avr-gcc-7.2.0-x64-mingw\avr\include\avr\power.h ****   <tr>
 378:c:\avr-gcc-7.2.0-x64-mingw\avr\include\avr\power.h ****     <td>power_timer3_disable()</td>
 379:c:\avr-gcc-7.2.0-x64-mingw\avr\include\avr\power.h ****     <td>Disable the Timer 3 module.</td>
 380:c:\avr-gcc-7.2.0-x64-mingw\avr\include\avr\power.h ****   </tr>
 381:c:\avr-gcc-7.2.0-x64-mingw\avr\include\avr\power.h **** 
 382:c:\avr-gcc-7.2.0-x64-mingw\avr\include\avr\power.h ****   <tr>
 383:c:\avr-gcc-7.2.0-x64-mingw\avr\include\avr\power.h ****     <td>power_timer4_enable()</td>
 384:c:\avr-gcc-7.2.0-x64-mingw\avr\include\avr\power.h ****     <td>Enable the Timer 4 module.</td>
 385:c:\avr-gcc-7.2.0-x64-mingw\avr\include\avr\power.h ****   </tr>
 386:c:\avr-gcc-7.2.0-x64-mingw\avr\include\avr\power.h **** 
 387:c:\avr-gcc-7.2.0-x64-mingw\avr\include\avr\power.h ****   <tr>
 388:c:\avr-gcc-7.2.0-x64-mingw\avr\include\avr\power.h ****     <td>power_timer4_disable()</td>
 389:c:\avr-gcc-7.2.0-x64-mingw\avr\include\avr\power.h ****     <td>Disable the Timer 4 module.</td>
 390:c:\avr-gcc-7.2.0-x64-mingw\avr\include\avr\power.h ****   </tr>
 391:c:\avr-gcc-7.2.0-x64-mingw\avr\include\avr\power.h **** 
 392:c:\avr-gcc-7.2.0-x64-mingw\avr\include\avr\power.h ****   <tr>
 393:c:\avr-gcc-7.2.0-x64-mingw\avr\include\avr\power.h ****     <td>power_timer5_enable()</td>
 394:c:\avr-gcc-7.2.0-x64-mingw\avr\include\avr\power.h ****     <td>Enable the Timer 5 module.</td>
 395:c:\avr-gcc-7.2.0-x64-mingw\avr\include\avr\power.h ****   </tr>
 396:c:\avr-gcc-7.2.0-x64-mingw\avr\include\avr\power.h **** 
 397:c:\avr-gcc-7.2.0-x64-mingw\avr\include\avr\power.h ****   <tr>
 398:c:\avr-gcc-7.2.0-x64-mingw\avr\include\avr\power.h ****     <td>power_timer5_disable()</td>
 399:c:\avr-gcc-7.2.0-x64-mingw\avr\include\avr\power.h ****     <td>Disable the Timer 5 module.</td>
 400:c:\avr-gcc-7.2.0-x64-mingw\avr\include\avr\power.h ****   </tr>
 401:c:\avr-gcc-7.2.0-x64-mingw\avr\include\avr\power.h **** 
 402:c:\avr-gcc-7.2.0-x64-mingw\avr\include\avr\power.h ****   <tr>
 403:c:\avr-gcc-7.2.0-x64-mingw\avr\include\avr\power.h ****     <td>power_twi_enable()</td>
 404:c:\avr-gcc-7.2.0-x64-mingw\avr\include\avr\power.h ****     <td>Enable the Two Wire Interface module.</td>
 405:c:\avr-gcc-7.2.0-x64-mingw\avr\include\avr\power.h ****   </tr>
 406:c:\avr-gcc-7.2.0-x64-mingw\avr\include\avr\power.h **** 
 407:c:\avr-gcc-7.2.0-x64-mingw\avr\include\avr\power.h ****   <tr>
 408:c:\avr-gcc-7.2.0-x64-mingw\avr\include\avr\power.h ****     <td>power_twi_disable()</td>
 409:c:\avr-gcc-7.2.0-x64-mingw\avr\include\avr\power.h ****     <td>Disable the Two Wire Interface module.</td>
 410:c:\avr-gcc-7.2.0-x64-mingw\avr\include\avr\power.h ****   </tr>
 411:c:\avr-gcc-7.2.0-x64-mingw\avr\include\avr\power.h **** 
 412:c:\avr-gcc-7.2.0-x64-mingw\avr\include\avr\power.h ****   <tr>
 413:c:\avr-gcc-7.2.0-x64-mingw\avr\include\avr\power.h ****     <td>power_usart_enable()</td>
 414:c:\avr-gcc-7.2.0-x64-mingw\avr\include\avr\power.h ****     <td>Enable the USART module.</td>
 415:c:\avr-gcc-7.2.0-x64-mingw\avr\include\avr\power.h ****   </tr>
 416:c:\avr-gcc-7.2.0-x64-mingw\avr\include\avr\power.h **** 
 417:c:\avr-gcc-7.2.0-x64-mingw\avr\include\avr\power.h ****   <tr>
 418:c:\avr-gcc-7.2.0-x64-mingw\avr\include\avr\power.h ****     <td>power_usart_disable()</td>
 419:c:\avr-gcc-7.2.0-x64-mingw\avr\include\avr\power.h ****     <td>Disable the USART module.</td>
 420:c:\avr-gcc-7.2.0-x64-mingw\avr\include\avr\power.h ****   </tr>
 421:c:\avr-gcc-7.2.0-x64-mingw\avr\include\avr\power.h **** 
 422:c:\avr-gcc-7.2.0-x64-mingw\avr\include\avr\power.h ****   <tr>
 423:c:\avr-gcc-7.2.0-x64-mingw\avr\include\avr\power.h ****     <td>power_usart0_enable()</td>
 424:c:\avr-gcc-7.2.0-x64-mingw\avr\include\avr\power.h ****     <td>Enable the USART 0 module.</td>
 425:c:\avr-gcc-7.2.0-x64-mingw\avr\include\avr\power.h ****   </tr>
 426:c:\avr-gcc-7.2.0-x64-mingw\avr\include\avr\power.h **** 
 427:c:\avr-gcc-7.2.0-x64-mingw\avr\include\avr\power.h ****   <tr>
 428:c:\avr-gcc-7.2.0-x64-mingw\avr\include\avr\power.h ****     <td>power_usart0_disable()</td>
 429:c:\avr-gcc-7.2.0-x64-mingw\avr\include\avr\power.h ****     <td>Disable the USART 0 module.</td>
 430:c:\avr-gcc-7.2.0-x64-mingw\avr\include\avr\power.h ****   </tr>
 431:c:\avr-gcc-7.2.0-x64-mingw\avr\include\avr\power.h **** 
 432:c:\avr-gcc-7.2.0-x64-mingw\avr\include\avr\power.h ****   <tr>
 433:c:\avr-gcc-7.2.0-x64-mingw\avr\include\avr\power.h ****     <td>power_usart1_enable()</td>
 434:c:\avr-gcc-7.2.0-x64-mingw\avr\include\avr\power.h ****     <td>Enable the USART 1 module.</td>
 435:c:\avr-gcc-7.2.0-x64-mingw\avr\include\avr\power.h ****   </tr>
 436:c:\avr-gcc-7.2.0-x64-mingw\avr\include\avr\power.h **** 
 437:c:\avr-gcc-7.2.0-x64-mingw\avr\include\avr\power.h ****   <tr>
 438:c:\avr-gcc-7.2.0-x64-mingw\avr\include\avr\power.h ****     <td>power_usart1_disable()</td>
 439:c:\avr-gcc-7.2.0-x64-mingw\avr\include\avr\power.h ****     <td>Disable the USART 1 module.</td>
 440:c:\avr-gcc-7.2.0-x64-mingw\avr\include\avr\power.h ****   </tr>
 441:c:\avr-gcc-7.2.0-x64-mingw\avr\include\avr\power.h **** 
 442:c:\avr-gcc-7.2.0-x64-mingw\avr\include\avr\power.h ****   <tr>
 443:c:\avr-gcc-7.2.0-x64-mingw\avr\include\avr\power.h ****     <td>power_usart2_enable()</td>
 444:c:\avr-gcc-7.2.0-x64-mingw\avr\include\avr\power.h ****     <td>Enable the USART 2 module.</td>
 445:c:\avr-gcc-7.2.0-x64-mingw\avr\include\avr\power.h ****   </tr>
 446:c:\avr-gcc-7.2.0-x64-mingw\avr\include\avr\power.h **** 
 447:c:\avr-gcc-7.2.0-x64-mingw\avr\include\avr\power.h ****   <tr>
 448:c:\avr-gcc-7.2.0-x64-mingw\avr\include\avr\power.h ****     <td>power_usart2_disable()</td>
 449:c:\avr-gcc-7.2.0-x64-mingw\avr\include\avr\power.h ****     <td>Disable the USART 2 module.</td>
 450:c:\avr-gcc-7.2.0-x64-mingw\avr\include\avr\power.h ****   </tr>
 451:c:\avr-gcc-7.2.0-x64-mingw\avr\include\avr\power.h **** 
 452:c:\avr-gcc-7.2.0-x64-mingw\avr\include\avr\power.h ****   <tr>
 453:c:\avr-gcc-7.2.0-x64-mingw\avr\include\avr\power.h ****     <td>power_usart3_enable()</td>
 454:c:\avr-gcc-7.2.0-x64-mingw\avr\include\avr\power.h ****     <td>Enable the USART 3 module.</td>
 455:c:\avr-gcc-7.2.0-x64-mingw\avr\include\avr\power.h ****   </tr>
 456:c:\avr-gcc-7.2.0-x64-mingw\avr\include\avr\power.h **** 
 457:c:\avr-gcc-7.2.0-x64-mingw\avr\include\avr\power.h ****   <tr>
 458:c:\avr-gcc-7.2.0-x64-mingw\avr\include\avr\power.h ****     <td>power_usart3_disable()</td>
 459:c:\avr-gcc-7.2.0-x64-mingw\avr\include\avr\power.h ****     <td>Disable the USART 3 module.</td>
 460:c:\avr-gcc-7.2.0-x64-mingw\avr\include\avr\power.h ****   </tr>
 461:c:\avr-gcc-7.2.0-x64-mingw\avr\include\avr\power.h **** 
 462:c:\avr-gcc-7.2.0-x64-mingw\avr\include\avr\power.h ****   <tr>
 463:c:\avr-gcc-7.2.0-x64-mingw\avr\include\avr\power.h ****     <td>power_usartc0_disable()</td>
 464:c:\avr-gcc-7.2.0-x64-mingw\avr\include\avr\power.h ****     <td> Disable the USART0 module on PortC</td>
 465:c:\avr-gcc-7.2.0-x64-mingw\avr\include\avr\power.h ****   </tr>
 466:c:\avr-gcc-7.2.0-x64-mingw\avr\include\avr\power.h **** 
 467:c:\avr-gcc-7.2.0-x64-mingw\avr\include\avr\power.h ****   <tr>
 468:c:\avr-gcc-7.2.0-x64-mingw\avr\include\avr\power.h ****     <td>power_usartc0_enable()</td>
 469:c:\avr-gcc-7.2.0-x64-mingw\avr\include\avr\power.h ****     <td> Enable the USART0 module on PortC</td>
 470:c:\avr-gcc-7.2.0-x64-mingw\avr\include\avr\power.h ****   </tr>
 471:c:\avr-gcc-7.2.0-x64-mingw\avr\include\avr\power.h **** 
 472:c:\avr-gcc-7.2.0-x64-mingw\avr\include\avr\power.h ****   <tr>
 473:c:\avr-gcc-7.2.0-x64-mingw\avr\include\avr\power.h ****     <td>power_usartd0_disable()</td>
 474:c:\avr-gcc-7.2.0-x64-mingw\avr\include\avr\power.h ****     <td> Disable the USART0 module on PortD</td>
 475:c:\avr-gcc-7.2.0-x64-mingw\avr\include\avr\power.h ****   </tr>
 476:c:\avr-gcc-7.2.0-x64-mingw\avr\include\avr\power.h **** 
 477:c:\avr-gcc-7.2.0-x64-mingw\avr\include\avr\power.h ****   <tr>
 478:c:\avr-gcc-7.2.0-x64-mingw\avr\include\avr\power.h ****     <td>power_usartd0_enable()</td>
 479:c:\avr-gcc-7.2.0-x64-mingw\avr\include\avr\power.h ****     <td> Enable the USART0 module on PortD</td>
 480:c:\avr-gcc-7.2.0-x64-mingw\avr\include\avr\power.h ****   </tr>
 481:c:\avr-gcc-7.2.0-x64-mingw\avr\include\avr\power.h **** 
 482:c:\avr-gcc-7.2.0-x64-mingw\avr\include\avr\power.h ****   <tr>
 483:c:\avr-gcc-7.2.0-x64-mingw\avr\include\avr\power.h ****     <td>power_usarte0_disable()</td>
 484:c:\avr-gcc-7.2.0-x64-mingw\avr\include\avr\power.h ****     <td> Disable the USART0 module on PortE</td>
 485:c:\avr-gcc-7.2.0-x64-mingw\avr\include\avr\power.h ****   </tr>
 486:c:\avr-gcc-7.2.0-x64-mingw\avr\include\avr\power.h **** 
 487:c:\avr-gcc-7.2.0-x64-mingw\avr\include\avr\power.h ****   <tr>
 488:c:\avr-gcc-7.2.0-x64-mingw\avr\include\avr\power.h ****     <td>power_usarte0_enable()</td>
 489:c:\avr-gcc-7.2.0-x64-mingw\avr\include\avr\power.h ****     <td> Enable the USART0 module on PortE</td>
 490:c:\avr-gcc-7.2.0-x64-mingw\avr\include\avr\power.h ****   </tr>
 491:c:\avr-gcc-7.2.0-x64-mingw\avr\include\avr\power.h **** 
 492:c:\avr-gcc-7.2.0-x64-mingw\avr\include\avr\power.h ****   <tr>
 493:c:\avr-gcc-7.2.0-x64-mingw\avr\include\avr\power.h ****     <td>power_usartf0_disable()</td>
 494:c:\avr-gcc-7.2.0-x64-mingw\avr\include\avr\power.h ****     <td> Disable the USART0 module on PortF</td>
 495:c:\avr-gcc-7.2.0-x64-mingw\avr\include\avr\power.h ****   </tr>
 496:c:\avr-gcc-7.2.0-x64-mingw\avr\include\avr\power.h **** 
 497:c:\avr-gcc-7.2.0-x64-mingw\avr\include\avr\power.h ****   <tr>
 498:c:\avr-gcc-7.2.0-x64-mingw\avr\include\avr\power.h ****     <td>power_usartf0_enable()</td>
 499:c:\avr-gcc-7.2.0-x64-mingw\avr\include\avr\power.h ****     <td> Enable the USART0 module on PortF</td>
 500:c:\avr-gcc-7.2.0-x64-mingw\avr\include\avr\power.h ****   </tr>
 501:c:\avr-gcc-7.2.0-x64-mingw\avr\include\avr\power.h **** 
 502:c:\avr-gcc-7.2.0-x64-mingw\avr\include\avr\power.h ****   <tr>
 503:c:\avr-gcc-7.2.0-x64-mingw\avr\include\avr\power.h ****     <td>power_usb_enable()</td>
 504:c:\avr-gcc-7.2.0-x64-mingw\avr\include\avr\power.h ****     <td>Enable the USB module.</td>
 505:c:\avr-gcc-7.2.0-x64-mingw\avr\include\avr\power.h ****   </tr>
 506:c:\avr-gcc-7.2.0-x64-mingw\avr\include\avr\power.h **** 
 507:c:\avr-gcc-7.2.0-x64-mingw\avr\include\avr\power.h ****   <tr>
 508:c:\avr-gcc-7.2.0-x64-mingw\avr\include\avr\power.h ****     <td>power_usb_disable()</td>
 509:c:\avr-gcc-7.2.0-x64-mingw\avr\include\avr\power.h ****     <td>Disable the USB module.</td>
 510:c:\avr-gcc-7.2.0-x64-mingw\avr\include\avr\power.h ****   </tr>
 511:c:\avr-gcc-7.2.0-x64-mingw\avr\include\avr\power.h **** 
 512:c:\avr-gcc-7.2.0-x64-mingw\avr\include\avr\power.h ****   <tr>
 513:c:\avr-gcc-7.2.0-x64-mingw\avr\include\avr\power.h ****     <td>power_usi_enable()</td>
 514:c:\avr-gcc-7.2.0-x64-mingw\avr\include\avr\power.h ****     <td>Enable the Universal Serial Interface module.</td>
 515:c:\avr-gcc-7.2.0-x64-mingw\avr\include\avr\power.h ****   </tr>
 516:c:\avr-gcc-7.2.0-x64-mingw\avr\include\avr\power.h **** 
 517:c:\avr-gcc-7.2.0-x64-mingw\avr\include\avr\power.h ****   <tr>
 518:c:\avr-gcc-7.2.0-x64-mingw\avr\include\avr\power.h ****     <td>power_usi_disable()</td>
 519:c:\avr-gcc-7.2.0-x64-mingw\avr\include\avr\power.h ****     <td>Disable the Universal Serial Interface module.</td>
 520:c:\avr-gcc-7.2.0-x64-mingw\avr\include\avr\power.h ****   </tr>
 521:c:\avr-gcc-7.2.0-x64-mingw\avr\include\avr\power.h **** 
 522:c:\avr-gcc-7.2.0-x64-mingw\avr\include\avr\power.h ****   <tr>
 523:c:\avr-gcc-7.2.0-x64-mingw\avr\include\avr\power.h ****     <td>power_vadc_enable()</td>
 524:c:\avr-gcc-7.2.0-x64-mingw\avr\include\avr\power.h ****     <td>Enable the Voltage ADC module.</td>
 525:c:\avr-gcc-7.2.0-x64-mingw\avr\include\avr\power.h ****   </tr>
 526:c:\avr-gcc-7.2.0-x64-mingw\avr\include\avr\power.h **** 
 527:c:\avr-gcc-7.2.0-x64-mingw\avr\include\avr\power.h ****   <tr>
 528:c:\avr-gcc-7.2.0-x64-mingw\avr\include\avr\power.h ****     <td>power_vadc_disable()</td>
 529:c:\avr-gcc-7.2.0-x64-mingw\avr\include\avr\power.h ****     <td>Disable the Voltage ADC module.</td>
 530:c:\avr-gcc-7.2.0-x64-mingw\avr\include\avr\power.h ****   </tr>
 531:c:\avr-gcc-7.2.0-x64-mingw\avr\include\avr\power.h **** 
 532:c:\avr-gcc-7.2.0-x64-mingw\avr\include\avr\power.h ****   <tr>
 533:c:\avr-gcc-7.2.0-x64-mingw\avr\include\avr\power.h ****     <td>power_all_enable()</td>
 534:c:\avr-gcc-7.2.0-x64-mingw\avr\include\avr\power.h ****     <td>Enable all modules.</td>
 535:c:\avr-gcc-7.2.0-x64-mingw\avr\include\avr\power.h ****   </tr>
 536:c:\avr-gcc-7.2.0-x64-mingw\avr\include\avr\power.h **** 
 537:c:\avr-gcc-7.2.0-x64-mingw\avr\include\avr\power.h ****   <tr>
 538:c:\avr-gcc-7.2.0-x64-mingw\avr\include\avr\power.h ****     <td>power_all_disable()</td>
 539:c:\avr-gcc-7.2.0-x64-mingw\avr\include\avr\power.h ****     <td>Disable all modules.</td>
 540:c:\avr-gcc-7.2.0-x64-mingw\avr\include\avr\power.h ****   </tr>
 541:c:\avr-gcc-7.2.0-x64-mingw\avr\include\avr\power.h **** </table>
 542:c:\avr-gcc-7.2.0-x64-mingw\avr\include\avr\power.h **** </center>
 543:c:\avr-gcc-7.2.0-x64-mingw\avr\include\avr\power.h **** </small>
 544:c:\avr-gcc-7.2.0-x64-mingw\avr\include\avr\power.h **** 
 545:c:\avr-gcc-7.2.0-x64-mingw\avr\include\avr\power.h **** @} */
 546:c:\avr-gcc-7.2.0-x64-mingw\avr\include\avr\power.h **** 
 547:c:\avr-gcc-7.2.0-x64-mingw\avr\include\avr\power.h **** #if defined(__AVR_HAVE_PRR_PRADC)
 548:c:\avr-gcc-7.2.0-x64-mingw\avr\include\avr\power.h **** #define power_adc_enable()      (PRR &= (uint8_t)~(1 << PRADC))
 549:c:\avr-gcc-7.2.0-x64-mingw\avr\include\avr\power.h **** #define power_adc_disable()     (PRR |= (uint8_t)(1 << PRADC))
 550:c:\avr-gcc-7.2.0-x64-mingw\avr\include\avr\power.h **** #endif
 551:c:\avr-gcc-7.2.0-x64-mingw\avr\include\avr\power.h **** 
 552:c:\avr-gcc-7.2.0-x64-mingw\avr\include\avr\power.h **** #if defined(__AVR_HAVE_PRR_PRCAN)
 553:c:\avr-gcc-7.2.0-x64-mingw\avr\include\avr\power.h **** #define power_can_enable()      (PRR &= (uint8_t)~(1 << PRCAN))
 554:c:\avr-gcc-7.2.0-x64-mingw\avr\include\avr\power.h **** #define power_can_disable()     (PRR |= (uint8_t)(1 << PRCAN))
 555:c:\avr-gcc-7.2.0-x64-mingw\avr\include\avr\power.h **** #endif
 556:c:\avr-gcc-7.2.0-x64-mingw\avr\include\avr\power.h **** 
 557:c:\avr-gcc-7.2.0-x64-mingw\avr\include\avr\power.h **** #if defined(__AVR_HAVE_PRR_PRLCD)
 558:c:\avr-gcc-7.2.0-x64-mingw\avr\include\avr\power.h **** #define power_lcd_enable()      (PRR &= (uint8_t)~(1 << PRLCD))
 559:c:\avr-gcc-7.2.0-x64-mingw\avr\include\avr\power.h **** #define power_lcd_disable()     (PRR |= (uint8_t)(1 << PRLCD))
 560:c:\avr-gcc-7.2.0-x64-mingw\avr\include\avr\power.h **** #endif
 561:c:\avr-gcc-7.2.0-x64-mingw\avr\include\avr\power.h **** 
 562:c:\avr-gcc-7.2.0-x64-mingw\avr\include\avr\power.h **** #if defined(__AVR_HAVE_PRR_PRLIN)
 563:c:\avr-gcc-7.2.0-x64-mingw\avr\include\avr\power.h **** #define power_lin_enable()      (PRR &= (uint8_t)~(1 << PRLIN))
 564:c:\avr-gcc-7.2.0-x64-mingw\avr\include\avr\power.h **** #define power_lin_disable()     (PRR |= (uint8_t)(1 << PRLIN))
 565:c:\avr-gcc-7.2.0-x64-mingw\avr\include\avr\power.h **** #endif
 566:c:\avr-gcc-7.2.0-x64-mingw\avr\include\avr\power.h **** 
 567:c:\avr-gcc-7.2.0-x64-mingw\avr\include\avr\power.h **** #if defined(__AVR_HAVE_PRR_PRPSC)
 568:c:\avr-gcc-7.2.0-x64-mingw\avr\include\avr\power.h **** #define power_psc_enable()      (PRR &= (uint8_t)~(1 << PRPSC))
 569:c:\avr-gcc-7.2.0-x64-mingw\avr\include\avr\power.h **** #define power_psc_disable()     (PRR |= (uint8_t)(1 << PRPSC))
 570:c:\avr-gcc-7.2.0-x64-mingw\avr\include\avr\power.h **** #endif
 571:c:\avr-gcc-7.2.0-x64-mingw\avr\include\avr\power.h **** 
 572:c:\avr-gcc-7.2.0-x64-mingw\avr\include\avr\power.h **** #if defined(__AVR_HAVE_PRR_PRPSC0)
 573:c:\avr-gcc-7.2.0-x64-mingw\avr\include\avr\power.h **** #define power_psc0_enable()     (PRR &= (uint8_t)~(1 << PRPSC0))
 574:c:\avr-gcc-7.2.0-x64-mingw\avr\include\avr\power.h **** #define power_psc0_disable()    (PRR |= (uint8_t)(1 << PRPSC0))
 575:c:\avr-gcc-7.2.0-x64-mingw\avr\include\avr\power.h **** #endif
 576:c:\avr-gcc-7.2.0-x64-mingw\avr\include\avr\power.h **** 
 577:c:\avr-gcc-7.2.0-x64-mingw\avr\include\avr\power.h **** #if defined(__AVR_HAVE_PRR_PRPSC1)
 578:c:\avr-gcc-7.2.0-x64-mingw\avr\include\avr\power.h **** #define power_psc1_enable()     (PRR &= (uint8_t)~(1 << PRPSC1))
 579:c:\avr-gcc-7.2.0-x64-mingw\avr\include\avr\power.h **** #define power_psc1_disable()    (PRR |= (uint8_t)(1 << PRPSC1))
 580:c:\avr-gcc-7.2.0-x64-mingw\avr\include\avr\power.h **** #endif
 581:c:\avr-gcc-7.2.0-x64-mingw\avr\include\avr\power.h **** 
 582:c:\avr-gcc-7.2.0-x64-mingw\avr\include\avr\power.h **** #if defined(__AVR_HAVE_PRR_PRPSC2)
 583:c:\avr-gcc-7.2.0-x64-mingw\avr\include\avr\power.h **** #define power_psc2_enable()     (PRR &= (uint8_t)~(1 << PRPSC2))
 584:c:\avr-gcc-7.2.0-x64-mingw\avr\include\avr\power.h **** #define power_psc2_disable()    (PRR |= (uint8_t)(1 << PRPSC2))
 585:c:\avr-gcc-7.2.0-x64-mingw\avr\include\avr\power.h **** #endif
 586:c:\avr-gcc-7.2.0-x64-mingw\avr\include\avr\power.h **** 
 587:c:\avr-gcc-7.2.0-x64-mingw\avr\include\avr\power.h **** #if defined(__AVR_HAVE_PRR_PRSCR)
 588:c:\avr-gcc-7.2.0-x64-mingw\avr\include\avr\power.h **** #define power_pscr_enable()     (PRR &= (uint8_t)~(1 << PRPSCR))
 589:c:\avr-gcc-7.2.0-x64-mingw\avr\include\avr\power.h **** #define power_pscr_disable()    (PRR |= (uint8_t)(1 << PRPSCR))
 590:c:\avr-gcc-7.2.0-x64-mingw\avr\include\avr\power.h **** #endif
 591:c:\avr-gcc-7.2.0-x64-mingw\avr\include\avr\power.h **** 
 592:c:\avr-gcc-7.2.0-x64-mingw\avr\include\avr\power.h **** #if defined(__AVR_HAVE_PRR_PRSPI)
 593:c:\avr-gcc-7.2.0-x64-mingw\avr\include\avr\power.h **** #define power_spi_enable()      (PRR &= (uint8_t)~(1 << PRSPI))
 594:c:\avr-gcc-7.2.0-x64-mingw\avr\include\avr\power.h **** #define power_spi_disable()     (PRR |= (uint8_t)(1 << PRSPI))
 595:c:\avr-gcc-7.2.0-x64-mingw\avr\include\avr\power.h **** #endif
 596:c:\avr-gcc-7.2.0-x64-mingw\avr\include\avr\power.h **** 
 597:c:\avr-gcc-7.2.0-x64-mingw\avr\include\avr\power.h **** #if defined(__AVR_HAVE_PRR_PRTIM0)
 598:c:\avr-gcc-7.2.0-x64-mingw\avr\include\avr\power.h **** #define power_timer0_enable()   (PRR &= (uint8_t)~(1 << PRTIM0))
 599:c:\avr-gcc-7.2.0-x64-mingw\avr\include\avr\power.h **** #define power_timer0_disable()  (PRR |= (uint8_t)(1 << PRTIM0))
 600:c:\avr-gcc-7.2.0-x64-mingw\avr\include\avr\power.h **** #endif
 601:c:\avr-gcc-7.2.0-x64-mingw\avr\include\avr\power.h **** 
 602:c:\avr-gcc-7.2.0-x64-mingw\avr\include\avr\power.h **** #if defined(__AVR_HAVE_PRR_PRTIM1)
 603:c:\avr-gcc-7.2.0-x64-mingw\avr\include\avr\power.h **** #define power_timer1_enable()   (PRR &= (uint8_t)~(1 << PRTIM1))
 604:c:\avr-gcc-7.2.0-x64-mingw\avr\include\avr\power.h **** #define power_timer1_disable()  (PRR |= (uint8_t)(1 << PRTIM1))
 605:c:\avr-gcc-7.2.0-x64-mingw\avr\include\avr\power.h **** #endif
 606:c:\avr-gcc-7.2.0-x64-mingw\avr\include\avr\power.h **** 
 607:c:\avr-gcc-7.2.0-x64-mingw\avr\include\avr\power.h **** #if defined(__AVR_HAVE_PRR_PRTIM2)
 608:c:\avr-gcc-7.2.0-x64-mingw\avr\include\avr\power.h **** #define power_timer2_enable()   (PRR &= (uint8_t)~(1 << PRTIM2))
 609:c:\avr-gcc-7.2.0-x64-mingw\avr\include\avr\power.h **** #define power_timer2_disable()  (PRR |= (uint8_t)(1 << PRTIM2))
 610:c:\avr-gcc-7.2.0-x64-mingw\avr\include\avr\power.h **** #endif
 611:c:\avr-gcc-7.2.0-x64-mingw\avr\include\avr\power.h **** 
 612:c:\avr-gcc-7.2.0-x64-mingw\avr\include\avr\power.h **** #if defined(__AVR_HAVE_PRR_PRTWI)
 613:c:\avr-gcc-7.2.0-x64-mingw\avr\include\avr\power.h **** #define power_twi_enable()      (PRR &= (uint8_t)~(1 << PRTWI))
 614:c:\avr-gcc-7.2.0-x64-mingw\avr\include\avr\power.h **** #define power_twi_disable()     (PRR |= (uint8_t)(1 << PRTWI))
 615:c:\avr-gcc-7.2.0-x64-mingw\avr\include\avr\power.h **** #endif
 616:c:\avr-gcc-7.2.0-x64-mingw\avr\include\avr\power.h **** 
 617:c:\avr-gcc-7.2.0-x64-mingw\avr\include\avr\power.h **** #if defined(__AVR_HAVE_PRR_PRUSART)
 618:c:\avr-gcc-7.2.0-x64-mingw\avr\include\avr\power.h **** #define power_usart_enable()    (PRR &= (uint8_t)~(1 << PRUSART))
 619:c:\avr-gcc-7.2.0-x64-mingw\avr\include\avr\power.h **** #define power_usart_disable()   (PRR |= (uint8_t)(1 << PRUSART))
 620:c:\avr-gcc-7.2.0-x64-mingw\avr\include\avr\power.h **** #endif
 621:c:\avr-gcc-7.2.0-x64-mingw\avr\include\avr\power.h **** 
 622:c:\avr-gcc-7.2.0-x64-mingw\avr\include\avr\power.h **** #if defined(__AVR_HAVE_PRR_PRUSART0)
 623:c:\avr-gcc-7.2.0-x64-mingw\avr\include\avr\power.h **** #define power_usart0_enable()   (PRR &= (uint8_t)~(1 << PRUSART0))
 624:c:\avr-gcc-7.2.0-x64-mingw\avr\include\avr\power.h **** #define power_usart0_disable()  (PRR |= (uint8_t)(1 << PRUSART0))
 625:c:\avr-gcc-7.2.0-x64-mingw\avr\include\avr\power.h **** #endif
 626:c:\avr-gcc-7.2.0-x64-mingw\avr\include\avr\power.h **** 
 627:c:\avr-gcc-7.2.0-x64-mingw\avr\include\avr\power.h **** #if defined(__AVR_HAVE_PRR_PRUSART1)
 628:c:\avr-gcc-7.2.0-x64-mingw\avr\include\avr\power.h **** #define power_usart1_enable()   (PRR &= (uint8_t)~(1 << PRUSART1))
 629:c:\avr-gcc-7.2.0-x64-mingw\avr\include\avr\power.h **** #define power_usart1_disable()  (PRR |= (uint8_t)(1 << PRUSART1))
 630:c:\avr-gcc-7.2.0-x64-mingw\avr\include\avr\power.h **** #endif
 631:c:\avr-gcc-7.2.0-x64-mingw\avr\include\avr\power.h **** 
 632:c:\avr-gcc-7.2.0-x64-mingw\avr\include\avr\power.h **** #if defined(__AVR_HAVE_PRR_PRUSI)
 633:c:\avr-gcc-7.2.0-x64-mingw\avr\include\avr\power.h **** #define power_usi_enable()      (PRR &= (uint8_t)~(1 << PRUSI))
 634:c:\avr-gcc-7.2.0-x64-mingw\avr\include\avr\power.h **** #define power_usi_disable()     (PRR |= (uint8_t)(1 << PRUSI))
 635:c:\avr-gcc-7.2.0-x64-mingw\avr\include\avr\power.h **** #endif
 636:c:\avr-gcc-7.2.0-x64-mingw\avr\include\avr\power.h **** 
 637:c:\avr-gcc-7.2.0-x64-mingw\avr\include\avr\power.h **** #if defined(__AVR_HAVE_PRR0_PRADC)
 638:c:\avr-gcc-7.2.0-x64-mingw\avr\include\avr\power.h **** #define power_adc_enable()      (PRR0 &= (uint8_t)~(1 << PRADC))
 639:c:\avr-gcc-7.2.0-x64-mingw\avr\include\avr\power.h **** #define power_adc_disable()     (PRR0 |= (uint8_t)(1 << PRADC))
 640:c:\avr-gcc-7.2.0-x64-mingw\avr\include\avr\power.h **** #endif
 641:c:\avr-gcc-7.2.0-x64-mingw\avr\include\avr\power.h **** 
 642:c:\avr-gcc-7.2.0-x64-mingw\avr\include\avr\power.h **** #if defined(__AVR_HAVE_PRR0_PRC0)
 643:c:\avr-gcc-7.2.0-x64-mingw\avr\include\avr\power.h **** #define power_clock_output_enable()     (PRR0 &= (uint8_t)~(1 << PRCO))
 644:c:\avr-gcc-7.2.0-x64-mingw\avr\include\avr\power.h **** #define power_clock_output_disable()    (PRR0 |= (uint8_t)(1 << PRCO))
 645:c:\avr-gcc-7.2.0-x64-mingw\avr\include\avr\power.h **** #endif
 646:c:\avr-gcc-7.2.0-x64-mingw\avr\include\avr\power.h **** 
 647:c:\avr-gcc-7.2.0-x64-mingw\avr\include\avr\power.h **** #if defined(__AVR_HAVE_PRR0_PRCRC)
 648:c:\avr-gcc-7.2.0-x64-mingw\avr\include\avr\power.h **** #define power_crc_enable()              (PRR0 &= (uint8_t)~(1 << PRCRC))
 649:c:\avr-gcc-7.2.0-x64-mingw\avr\include\avr\power.h **** #define power_crc_disable()             (PRR0 |= (uint8_t)(1 << PRCRC))
 650:c:\avr-gcc-7.2.0-x64-mingw\avr\include\avr\power.h **** #endif
 651:c:\avr-gcc-7.2.0-x64-mingw\avr\include\avr\power.h **** 
 652:c:\avr-gcc-7.2.0-x64-mingw\avr\include\avr\power.h **** #if defined(__AVR_HAVE_PRR0_PRCU)
 653:c:\avr-gcc-7.2.0-x64-mingw\avr\include\avr\power.h **** #define power_crypto_enable()           (PRR0 &= (uint8_t)~(1 << PRCU))
 654:c:\avr-gcc-7.2.0-x64-mingw\avr\include\avr\power.h **** #define power_crypto_disable()          (PRR0 |= (uint8_t)(1 << PRCU))
 655:c:\avr-gcc-7.2.0-x64-mingw\avr\include\avr\power.h **** #endif
 656:c:\avr-gcc-7.2.0-x64-mingw\avr\include\avr\power.h **** 
 657:c:\avr-gcc-7.2.0-x64-mingw\avr\include\avr\power.h **** #if defined(__AVR_HAVE_PRR0_PRDS)
 658:c:\avr-gcc-7.2.0-x64-mingw\avr\include\avr\power.h **** #define power_irdriver_enable()         (PRR0 &= (uint8_t)~(1 << PRDS))
 659:c:\avr-gcc-7.2.0-x64-mingw\avr\include\avr\power.h **** #define power_irdriver_disable()        (PRR0 |= (uint8_t)(1 << PRDS))
 660:c:\avr-gcc-7.2.0-x64-mingw\avr\include\avr\power.h **** #endif
 661:c:\avr-gcc-7.2.0-x64-mingw\avr\include\avr\power.h **** 
 662:c:\avr-gcc-7.2.0-x64-mingw\avr\include\avr\power.h **** #if defined(__AVR_HAVE_PRR0_PRLFR)
 663:c:\avr-gcc-7.2.0-x64-mingw\avr\include\avr\power.h **** #define power_lfreceiver_enable()       (PRR0 &= (uint8_t)~(1 << PRLFR))            
 664:c:\avr-gcc-7.2.0-x64-mingw\avr\include\avr\power.h **** #define power_lfreceiver_disable()      (PRR0 |= (uint8_t)(1 << PRLFR))            
 665:c:\avr-gcc-7.2.0-x64-mingw\avr\include\avr\power.h **** #endif
 666:c:\avr-gcc-7.2.0-x64-mingw\avr\include\avr\power.h **** 
 667:c:\avr-gcc-7.2.0-x64-mingw\avr\include\avr\power.h **** #if defined(__AVR_HAVE_PRR0_PRLIN)
 668:c:\avr-gcc-7.2.0-x64-mingw\avr\include\avr\power.h **** #define power_lin_enable()              (PRR0 &= (uint8_t)~(1 << PRLIN))
 669:c:\avr-gcc-7.2.0-x64-mingw\avr\include\avr\power.h **** #define power_lin_disable()             (PRR0 |= (uint8_t)(1 << PRLIN))
 670:c:\avr-gcc-7.2.0-x64-mingw\avr\include\avr\power.h **** #endif
 671:c:\avr-gcc-7.2.0-x64-mingw\avr\include\avr\power.h **** 
 672:c:\avr-gcc-7.2.0-x64-mingw\avr\include\avr\power.h **** #if defined(__AVR_HAVE_PRR0_PRPGA)
 673:c:\avr-gcc-7.2.0-x64-mingw\avr\include\avr\power.h **** #define power_pga_enable()              (PRR0 &= (uint8_t)~(1 << PRPGA))
 674:c:\avr-gcc-7.2.0-x64-mingw\avr\include\avr\power.h **** #define power_pga_disable()             (PRR0 |= (uint8_t)(1 << PRPGA))
 675:c:\avr-gcc-7.2.0-x64-mingw\avr\include\avr\power.h **** #endif
 676:c:\avr-gcc-7.2.0-x64-mingw\avr\include\avr\power.h **** 
 677:c:\avr-gcc-7.2.0-x64-mingw\avr\include\avr\power.h **** #if defined(__AVR_HAVE_PRR0_PRRXDC)
 678:c:\avr-gcc-7.2.0-x64-mingw\avr\include\avr\power.h **** #define power_receive_dsp_control_enable()  (PRR0 &= (uint8_t)~(1 << PRRXDC))
 679:c:\avr-gcc-7.2.0-x64-mingw\avr\include\avr\power.h **** #define power_receive_dsp_control_disable() (PRR0 |= (uint8_t)(1 << PRRXDC))
 680:c:\avr-gcc-7.2.0-x64-mingw\avr\include\avr\power.h **** #endif
 681:c:\avr-gcc-7.2.0-x64-mingw\avr\include\avr\power.h **** 
 682:c:\avr-gcc-7.2.0-x64-mingw\avr\include\avr\power.h **** #if defined(__AVR_HAVE_PRR0_PRSPI)
 683:c:\avr-gcc-7.2.0-x64-mingw\avr\include\avr\power.h **** #define power_spi_enable()              (PRR0 &= (uint8_t)~(1 << PRSPI))
 684:c:\avr-gcc-7.2.0-x64-mingw\avr\include\avr\power.h **** #define power_spi_disable()             (PRR0 |= (uint8_t)(1 << PRSPI))
 685:c:\avr-gcc-7.2.0-x64-mingw\avr\include\avr\power.h **** #endif
 686:c:\avr-gcc-7.2.0-x64-mingw\avr\include\avr\power.h **** 
 687:c:\avr-gcc-7.2.0-x64-mingw\avr\include\avr\power.h **** #if defined(__AVR_HAVE_PRR0_PRT0)
 688:c:\avr-gcc-7.2.0-x64-mingw\avr\include\avr\power.h **** #define power_timer0_enable()           (PRR0 &= (uint8_t)~(1 << PRT0))
 689:c:\avr-gcc-7.2.0-x64-mingw\avr\include\avr\power.h **** #define power_timer0_disable()          (PRR0 |= (uint8_t)(1 << PRT0))
 690:c:\avr-gcc-7.2.0-x64-mingw\avr\include\avr\power.h **** #endif
 691:c:\avr-gcc-7.2.0-x64-mingw\avr\include\avr\power.h **** 
 692:c:\avr-gcc-7.2.0-x64-mingw\avr\include\avr\power.h **** #if defined(__AVR_HAVE_PRR0_PRTIM0)
 693:c:\avr-gcc-7.2.0-x64-mingw\avr\include\avr\power.h **** #define power_timer0_enable()           (PRR0 &= (uint8_t)~(1 << PRTIM0))
 694:c:\avr-gcc-7.2.0-x64-mingw\avr\include\avr\power.h **** #define power_timer0_disable()          (PRR0 |= (uint8_t)(1 << PRTIM0))
 695:c:\avr-gcc-7.2.0-x64-mingw\avr\include\avr\power.h **** #endif
 696:c:\avr-gcc-7.2.0-x64-mingw\avr\include\avr\power.h **** 
 697:c:\avr-gcc-7.2.0-x64-mingw\avr\include\avr\power.h **** #if defined(__AVR_HAVE_PRR0_PRT1)
 698:c:\avr-gcc-7.2.0-x64-mingw\avr\include\avr\power.h **** #define power_timer1_enable()           (PRR0 &= (uint8_t)~(1 << PRT1))
 699:c:\avr-gcc-7.2.0-x64-mingw\avr\include\avr\power.h **** #define power_timer1_disable()          (PRR0 |= (uint8_t)(1 << PRT1))
 700:c:\avr-gcc-7.2.0-x64-mingw\avr\include\avr\power.h **** #endif
 701:c:\avr-gcc-7.2.0-x64-mingw\avr\include\avr\power.h **** 
 702:c:\avr-gcc-7.2.0-x64-mingw\avr\include\avr\power.h **** #if defined(__AVR_HAVE_PRR0_PRTIM1)
 703:c:\avr-gcc-7.2.0-x64-mingw\avr\include\avr\power.h **** #define power_timer1_enable()           (PRR0 &= (uint8_t)~(1 << PRTIM1))
 704:c:\avr-gcc-7.2.0-x64-mingw\avr\include\avr\power.h **** #define power_timer1_disable()          (PRR0 |= (uint8_t)(1 << PRTIM1))
 705:c:\avr-gcc-7.2.0-x64-mingw\avr\include\avr\power.h **** #endif
 706:c:\avr-gcc-7.2.0-x64-mingw\avr\include\avr\power.h **** 
 707:c:\avr-gcc-7.2.0-x64-mingw\avr\include\avr\power.h **** #if defined(__AVR_HAVE_PRR0_PRT2)
 708:c:\avr-gcc-7.2.0-x64-mingw\avr\include\avr\power.h **** #define power_timer2_enable()           (PRR0 &= (uint8_t)~(1 << PRT2))
 709:c:\avr-gcc-7.2.0-x64-mingw\avr\include\avr\power.h **** #define power_timer2_disable()          (PRR0 |= (uint8_t)(1 << PRT2))
 710:c:\avr-gcc-7.2.0-x64-mingw\avr\include\avr\power.h **** #endif
 711:c:\avr-gcc-7.2.0-x64-mingw\avr\include\avr\power.h **** 
 712:c:\avr-gcc-7.2.0-x64-mingw\avr\include\avr\power.h **** #if defined(__AVR_HAVE_PRR0_PRTIM2)
 713:c:\avr-gcc-7.2.0-x64-mingw\avr\include\avr\power.h **** #define power_timer2_enable()           (PRR0 &= (uint8_t)~(1 << PRTIM2))
 714:c:\avr-gcc-7.2.0-x64-mingw\avr\include\avr\power.h **** #define power_timer2_disable()          (PRR0 |= (uint8_t)(1 << PRTIM2))
 715:c:\avr-gcc-7.2.0-x64-mingw\avr\include\avr\power.h **** #endif
 716:c:\avr-gcc-7.2.0-x64-mingw\avr\include\avr\power.h **** 
 717:c:\avr-gcc-7.2.0-x64-mingw\avr\include\avr\power.h **** #if defined(__AVR_HAVE_PRR0_PRT3)
 718:c:\avr-gcc-7.2.0-x64-mingw\avr\include\avr\power.h **** #define power_timer3_enable()           (PRR0 &= (uint8_t)~(1 << PRT3))
 719:c:\avr-gcc-7.2.0-x64-mingw\avr\include\avr\power.h **** #define power_timer3_disable()          (PRR0 |= (uint8_t)(1 << PRT3))
 720:c:\avr-gcc-7.2.0-x64-mingw\avr\include\avr\power.h **** #endif
 721:c:\avr-gcc-7.2.0-x64-mingw\avr\include\avr\power.h **** 
 722:c:\avr-gcc-7.2.0-x64-mingw\avr\include\avr\power.h **** #if defined(__AVR_HAVE_PRR0_PRTM)
 723:c:\avr-gcc-7.2.0-x64-mingw\avr\include\avr\power.h **** #define power_timermodulator_enable()   (PRR0 &= (uint8_t)~(1 << PRTM))
 724:c:\avr-gcc-7.2.0-x64-mingw\avr\include\avr\power.h **** #define power_timermodulator_disable()  (PRR0 |= (uint8_t)(1 << PRTM))
 725:c:\avr-gcc-7.2.0-x64-mingw\avr\include\avr\power.h **** #endif
 726:c:\avr-gcc-7.2.0-x64-mingw\avr\include\avr\power.h **** 
 727:c:\avr-gcc-7.2.0-x64-mingw\avr\include\avr\power.h **** #if defined(__AVR_HAVE_PRR0_PRTWI)
 728:c:\avr-gcc-7.2.0-x64-mingw\avr\include\avr\power.h **** #define power_twi_enable()              (PRR0 &= (uint8_t)~(1 << PRTWI))
 729:c:\avr-gcc-7.2.0-x64-mingw\avr\include\avr\power.h **** #define power_twi_disable()             (PRR0 |= (uint8_t)(1 << PRTWI))
 730:c:\avr-gcc-7.2.0-x64-mingw\avr\include\avr\power.h **** #endif
 731:c:\avr-gcc-7.2.0-x64-mingw\avr\include\avr\power.h **** 
 732:c:\avr-gcc-7.2.0-x64-mingw\avr\include\avr\power.h **** #if defined(__AVR_HAVE_PRR0_PRTXDC)
 733:c:\avr-gcc-7.2.0-x64-mingw\avr\include\avr\power.h **** #define power_transmit_dsp_control_enable()   (PRR0 &= (uint8_t)~(1 << PRTXDC))
 734:c:\avr-gcc-7.2.0-x64-mingw\avr\include\avr\power.h **** #define power_transmit_dsp_control_disable()  (PRR0 |= (uint8_t)(1 << PRTXDC))
 735:c:\avr-gcc-7.2.0-x64-mingw\avr\include\avr\power.h **** #endif
 736:c:\avr-gcc-7.2.0-x64-mingw\avr\include\avr\power.h **** 
 737:c:\avr-gcc-7.2.0-x64-mingw\avr\include\avr\power.h **** #if defined(__AVR_HAVE_PRR0_PRUSART0)
 738:c:\avr-gcc-7.2.0-x64-mingw\avr\include\avr\power.h **** #define power_usart0_enable()           (PRR0 &= (uint8_t)~(1 << PRUSART0))
 739:c:\avr-gcc-7.2.0-x64-mingw\avr\include\avr\power.h **** #define power_usart0_disable()          (PRR0 |= (uint8_t)(1 << PRUSART0))
 740:c:\avr-gcc-7.2.0-x64-mingw\avr\include\avr\power.h **** #endif
 741:c:\avr-gcc-7.2.0-x64-mingw\avr\include\avr\power.h **** 
 742:c:\avr-gcc-7.2.0-x64-mingw\avr\include\avr\power.h **** #if defined(__AVR_HAVE_PRR0_PRUSART1)
 743:c:\avr-gcc-7.2.0-x64-mingw\avr\include\avr\power.h **** #define power_usart1_enable()           (PRR0 &= (uint8_t)~(1 << PRUSART1))
 744:c:\avr-gcc-7.2.0-x64-mingw\avr\include\avr\power.h **** #define power_usart1_disable()          (PRR0 |= (uint8_t)(1 << PRUSART1))
 745:c:\avr-gcc-7.2.0-x64-mingw\avr\include\avr\power.h **** #endif
 746:c:\avr-gcc-7.2.0-x64-mingw\avr\include\avr\power.h **** 
 747:c:\avr-gcc-7.2.0-x64-mingw\avr\include\avr\power.h **** #if defined(__AVR_HAVE_PRR0_PRVADC)
 748:c:\avr-gcc-7.2.0-x64-mingw\avr\include\avr\power.h **** #define power_vadc_enable()             (PRR0 &= (uint8_t)~(1 << PRVADC))
 749:c:\avr-gcc-7.2.0-x64-mingw\avr\include\avr\power.h **** #define power_vadc_disable()            (PRR0 |= (uint8_t)(1 << PRVADC))
 750:c:\avr-gcc-7.2.0-x64-mingw\avr\include\avr\power.h **** #endif
 751:c:\avr-gcc-7.2.0-x64-mingw\avr\include\avr\power.h **** 
 752:c:\avr-gcc-7.2.0-x64-mingw\avr\include\avr\power.h **** #if defined(__AVR_HAVE_PRR0_PRVM)
 753:c:\avr-gcc-7.2.0-x64-mingw\avr\include\avr\power.h **** #define power_voltage_monitor_enable()  (PRR0 &= (uint8_t)~(1 << PRVM))
 754:c:\avr-gcc-7.2.0-x64-mingw\avr\include\avr\power.h **** #define power_voltage_monitor_disable() (PRR0 |= (uint8_t)(1 << PRVM))
 755:c:\avr-gcc-7.2.0-x64-mingw\avr\include\avr\power.h **** #endif
 756:c:\avr-gcc-7.2.0-x64-mingw\avr\include\avr\power.h **** 
 757:c:\avr-gcc-7.2.0-x64-mingw\avr\include\avr\power.h **** #if defined(__AVR_HAVE_PRR0_PRVRM)
 758:c:\avr-gcc-7.2.0-x64-mingw\avr\include\avr\power.h **** #define power_vrm_enable()              (PRR0 &= (uint8_t)~(1 << PRVRM))
 759:c:\avr-gcc-7.2.0-x64-mingw\avr\include\avr\power.h **** #define power_vrm_disable()             (PRR0 |= (uint8_t)(1 << PRVRM))
 760:c:\avr-gcc-7.2.0-x64-mingw\avr\include\avr\power.h **** #endif
 761:c:\avr-gcc-7.2.0-x64-mingw\avr\include\avr\power.h **** 
 762:c:\avr-gcc-7.2.0-x64-mingw\avr\include\avr\power.h **** #if defined(__AVR_HAVE_PRR1_PRAES)
 763:c:\avr-gcc-7.2.0-x64-mingw\avr\include\avr\power.h **** #define power_aes_enable()              (PRR1 &= (uint8_t)~(1 << PRAES))
 764:c:\avr-gcc-7.2.0-x64-mingw\avr\include\avr\power.h **** #define power_aes_disable()             (PRR1 |= (uint8_t)(1 << PRAES))
 765:c:\avr-gcc-7.2.0-x64-mingw\avr\include\avr\power.h **** #endif
 766:c:\avr-gcc-7.2.0-x64-mingw\avr\include\avr\power.h **** 
 767:c:\avr-gcc-7.2.0-x64-mingw\avr\include\avr\power.h **** #if defined(__AVR_HAVE_PRR1_PRCI)
 768:c:\avr-gcc-7.2.0-x64-mingw\avr\include\avr\power.h **** #define power_cinterface_enable()       (PRR1 &= (uint8_t)~(1 << PRCI))
 769:c:\avr-gcc-7.2.0-x64-mingw\avr\include\avr\power.h **** #define power_cinterface_disable()      (PRR1 |= (uint8_t)(1 << PRCI))
 770:c:\avr-gcc-7.2.0-x64-mingw\avr\include\avr\power.h **** #endif
 771:c:\avr-gcc-7.2.0-x64-mingw\avr\include\avr\power.h **** 
 772:c:\avr-gcc-7.2.0-x64-mingw\avr\include\avr\power.h **** #if defined(__AVR_HAVE_PRR1_PRHSSPI)
 773:c:\avr-gcc-7.2.0-x64-mingw\avr\include\avr\power.h **** #define power_hsspi_enable()            (PRR1 &= (uint8_t)~(1 << PRHSSPI))
 774:c:\avr-gcc-7.2.0-x64-mingw\avr\include\avr\power.h **** #define power_hsspi_disable()           (PRR1 |= (uint8_t)(1 << PRHSSPI))
 775:c:\avr-gcc-7.2.0-x64-mingw\avr\include\avr\power.h **** #endif
 776:c:\avr-gcc-7.2.0-x64-mingw\avr\include\avr\power.h **** 
 777:c:\avr-gcc-7.2.0-x64-mingw\avr\include\avr\power.h **** #if defined(__AVR_HAVE_PRR1_PRKB)
 778:c:\avr-gcc-7.2.0-x64-mingw\avr\include\avr\power.h **** #define power_kb_enable()               (PRR1 &= (uint8_t)~(1 << PRKB))
 779:c:\avr-gcc-7.2.0-x64-mingw\avr\include\avr\power.h **** #define power_kb_disable()              (PRR1 |= (uint8_t)(1 << PRKB))
 780:c:\avr-gcc-7.2.0-x64-mingw\avr\include\avr\power.h **** #endif
 781:c:\avr-gcc-7.2.0-x64-mingw\avr\include\avr\power.h **** 
 782:c:\avr-gcc-7.2.0-x64-mingw\avr\include\avr\power.h **** #if defined(__AVR_HAVE_PRR1_PRLFR)
 783:c:\avr-gcc-7.2.0-x64-mingw\avr\include\avr\power.h **** #define power_lfreceiver_enable()       (PRR1 &= (uint8_t)~(1 << PRLFR))            
 784:c:\avr-gcc-7.2.0-x64-mingw\avr\include\avr\power.h **** #define power_lfreceiver_disable()      (PRR1 |= (uint8_t)(1 << PRLFR))            
 785:c:\avr-gcc-7.2.0-x64-mingw\avr\include\avr\power.h **** #endif
 786:c:\avr-gcc-7.2.0-x64-mingw\avr\include\avr\power.h **** 
 787:c:\avr-gcc-7.2.0-x64-mingw\avr\include\avr\power.h **** #if defined(__AVR_HAVE_PRR1_PRSCI)
 788:c:\avr-gcc-7.2.0-x64-mingw\avr\include\avr\power.h **** #define power_sci_enable()              (PRR1 &= (uint8_t)~(1 << PRSCI))
 789:c:\avr-gcc-7.2.0-x64-mingw\avr\include\avr\power.h **** #define power_sci_disable()             (PRR1 |= (uint8_t)(1 << PRSCI))
 790:c:\avr-gcc-7.2.0-x64-mingw\avr\include\avr\power.h **** #endif
 791:c:\avr-gcc-7.2.0-x64-mingw\avr\include\avr\power.h **** 
 792:c:\avr-gcc-7.2.0-x64-mingw\avr\include\avr\power.h **** #if defined(__AVR_HAVE_PRR1_PRT1)
 793:c:\avr-gcc-7.2.0-x64-mingw\avr\include\avr\power.h **** #define power_timer1_enable()           (PRR1 &= (uint8_t)~(1 << PRT1))
 794:c:\avr-gcc-7.2.0-x64-mingw\avr\include\avr\power.h **** #define power_timer1_disable()          (PRR1 |= (uint8_t)(1 << PRT1))
 795:c:\avr-gcc-7.2.0-x64-mingw\avr\include\avr\power.h **** #endif
 796:c:\avr-gcc-7.2.0-x64-mingw\avr\include\avr\power.h **** 
 797:c:\avr-gcc-7.2.0-x64-mingw\avr\include\avr\power.h **** #if defined(__AVR_HAVE_PRR1_PRT2)
 798:c:\avr-gcc-7.2.0-x64-mingw\avr\include\avr\power.h **** #define power_timer2_enable()           (PRR1 &= (uint8_t)~(1 << PRT2))
 799:c:\avr-gcc-7.2.0-x64-mingw\avr\include\avr\power.h **** #define power_timer2_disable()          (PRR1 |= (uint8_t)(1 << PRT2))
 800:c:\avr-gcc-7.2.0-x64-mingw\avr\include\avr\power.h **** #endif
 801:c:\avr-gcc-7.2.0-x64-mingw\avr\include\avr\power.h **** 
 802:c:\avr-gcc-7.2.0-x64-mingw\avr\include\avr\power.h **** #if defined(__AVR_HAVE_PRR1_PRT3)
 803:c:\avr-gcc-7.2.0-x64-mingw\avr\include\avr\power.h **** #define power_timer3_enable()           (PRR1 &= (uint8_t)~(1 << PRT3))
 804:c:\avr-gcc-7.2.0-x64-mingw\avr\include\avr\power.h **** #define power_timer3_disable()          (PRR1 |= (uint8_t)(1 << PRT3))
 805:c:\avr-gcc-7.2.0-x64-mingw\avr\include\avr\power.h **** #endif
 806:c:\avr-gcc-7.2.0-x64-mingw\avr\include\avr\power.h **** 
 807:c:\avr-gcc-7.2.0-x64-mingw\avr\include\avr\power.h **** #if defined(__AVR_HAVE_PRR1_PRT4)
 808:c:\avr-gcc-7.2.0-x64-mingw\avr\include\avr\power.h **** #define power_timer4_enable()           (PRR1 &= (uint8_t)~(1 << PRT4))
 809:c:\avr-gcc-7.2.0-x64-mingw\avr\include\avr\power.h **** #define power_timer4_disable()          (PRR1 |= (uint8_t)(1 << PRT4))
 810:c:\avr-gcc-7.2.0-x64-mingw\avr\include\avr\power.h **** #endif
 811:c:\avr-gcc-7.2.0-x64-mingw\avr\include\avr\power.h **** 
 812:c:\avr-gcc-7.2.0-x64-mingw\avr\include\avr\power.h **** #if defined(__AVR_HAVE_PRR1_PRT5)
 813:c:\avr-gcc-7.2.0-x64-mingw\avr\include\avr\power.h **** #define power_timer5_enable()           (PRR1 &= (uint8_t)~(1 << PRT5))
 814:c:\avr-gcc-7.2.0-x64-mingw\avr\include\avr\power.h **** #define power_timer5_disable()          (PRR1 |= (uint8_t)(1 << PRT5))
 815:c:\avr-gcc-7.2.0-x64-mingw\avr\include\avr\power.h **** #endif
 816:c:\avr-gcc-7.2.0-x64-mingw\avr\include\avr\power.h **** 
 817:c:\avr-gcc-7.2.0-x64-mingw\avr\include\avr\power.h **** #if defined(__AVR_HAVE_PRR1_PRTIM3)
 818:c:\avr-gcc-7.2.0-x64-mingw\avr\include\avr\power.h **** #define power_timer3_enable()           (PRR1 &= (uint8_t)~(1 << PRTIM3))
 819:c:\avr-gcc-7.2.0-x64-mingw\avr\include\avr\power.h **** #define power_timer3_disable()          (PRR1 |= (uint8_t)(1 << PRTIM3))
 820:c:\avr-gcc-7.2.0-x64-mingw\avr\include\avr\power.h **** #endif
 821:c:\avr-gcc-7.2.0-x64-mingw\avr\include\avr\power.h **** 
 822:c:\avr-gcc-7.2.0-x64-mingw\avr\include\avr\power.h **** #if defined(__AVR_HAVE_PRR1_PRTIM4)
 823:c:\avr-gcc-7.2.0-x64-mingw\avr\include\avr\power.h **** #define power_timer4_enable()           (PRR1 &= (uint8_t)~(1 << PRTIM4))
 824:c:\avr-gcc-7.2.0-x64-mingw\avr\include\avr\power.h **** #define power_timer4_disable()          (PRR1 |= (uint8_t)(1 << PRTIM4))
 825:c:\avr-gcc-7.2.0-x64-mingw\avr\include\avr\power.h **** #endif
 826:c:\avr-gcc-7.2.0-x64-mingw\avr\include\avr\power.h **** 
 827:c:\avr-gcc-7.2.0-x64-mingw\avr\include\avr\power.h **** #if defined(__AVR_HAVE_PRR1_PRTIM5)
 828:c:\avr-gcc-7.2.0-x64-mingw\avr\include\avr\power.h **** #define power_timer5_enable()           (PRR1 &= (uint8_t)~(1 << PRTIM5))
 829:c:\avr-gcc-7.2.0-x64-mingw\avr\include\avr\power.h **** #define power_timer5_disable()          (PRR1 |= (uint8_t)(1 << PRTIM5))
 830:c:\avr-gcc-7.2.0-x64-mingw\avr\include\avr\power.h **** #endif
 831:c:\avr-gcc-7.2.0-x64-mingw\avr\include\avr\power.h **** 
 832:c:\avr-gcc-7.2.0-x64-mingw\avr\include\avr\power.h **** #if defined(__AVR_HAVE_PRR1_PRTRX24)
 833:c:\avr-gcc-7.2.0-x64-mingw\avr\include\avr\power.h **** #define power_transceiver_enable()      (PRR1 &= (uint8_t)~(1 << PRTRX24))
 834:c:\avr-gcc-7.2.0-x64-mingw\avr\include\avr\power.h **** #define power_transceiver_disable()     (PRR1 |= (uint8_t)(1 << PRTRX24))
 835:c:\avr-gcc-7.2.0-x64-mingw\avr\include\avr\power.h **** #endif
 836:c:\avr-gcc-7.2.0-x64-mingw\avr\include\avr\power.h **** 
 837:c:\avr-gcc-7.2.0-x64-mingw\avr\include\avr\power.h **** #if defined(__AVR_HAVE_PRR1_PRUSART1)
 838:c:\avr-gcc-7.2.0-x64-mingw\avr\include\avr\power.h **** #define power_usart1_enable()           (PRR1 &= (uint8_t)~(1 << PRUSART1))
 839:c:\avr-gcc-7.2.0-x64-mingw\avr\include\avr\power.h **** #define power_usart1_disable()          (PRR1 |= (uint8_t)(1 << PRUSART1))
 840:c:\avr-gcc-7.2.0-x64-mingw\avr\include\avr\power.h **** #endif
 841:c:\avr-gcc-7.2.0-x64-mingw\avr\include\avr\power.h **** 
 842:c:\avr-gcc-7.2.0-x64-mingw\avr\include\avr\power.h **** #if defined(__AVR_HAVE_PRR1_PRUSART2)
 843:c:\avr-gcc-7.2.0-x64-mingw\avr\include\avr\power.h **** #define power_usart2_enable()           (PRR1 &= (uint8_t)~(1 << PRUSART2))
 844:c:\avr-gcc-7.2.0-x64-mingw\avr\include\avr\power.h **** #define power_usart2_disable()          (PRR1 |= (uint8_t)(1 << PRUSART2))
 845:c:\avr-gcc-7.2.0-x64-mingw\avr\include\avr\power.h **** #endif
 846:c:\avr-gcc-7.2.0-x64-mingw\avr\include\avr\power.h **** 
 847:c:\avr-gcc-7.2.0-x64-mingw\avr\include\avr\power.h **** #if defined(__AVR_HAVE_PRR1_PRUSB)
 848:c:\avr-gcc-7.2.0-x64-mingw\avr\include\avr\power.h **** #define power_usb_enable()              (PRR1 &= (uint8_t)~(1 << PRUSB))
 849:c:\avr-gcc-7.2.0-x64-mingw\avr\include\avr\power.h **** #define power_usb_disable()             (PRR1 |= (uint8_t)(1 << PRUSB))
 850:c:\avr-gcc-7.2.0-x64-mingw\avr\include\avr\power.h **** #endif
 851:c:\avr-gcc-7.2.0-x64-mingw\avr\include\avr\power.h **** 
 852:c:\avr-gcc-7.2.0-x64-mingw\avr\include\avr\power.h **** #if defined(__AVR_HAVE_PRR1_PRUSBH)
 853:c:\avr-gcc-7.2.0-x64-mingw\avr\include\avr\power.h **** #define power_usbh_enable()             (PRR1 &= (uint8_t)~(1 << PRUSBH))
 854:c:\avr-gcc-7.2.0-x64-mingw\avr\include\avr\power.h **** #define power_usbh_disable()            (PRR1 |= (uint8_t)(1 << PRUSBH))
 855:c:\avr-gcc-7.2.0-x64-mingw\avr\include\avr\power.h **** #endif
 856:c:\avr-gcc-7.2.0-x64-mingw\avr\include\avr\power.h **** 
 857:c:\avr-gcc-7.2.0-x64-mingw\avr\include\avr\power.h **** #if defined(__AVR_HAVE_PRR2_PRDF)
 858:c:\avr-gcc-7.2.0-x64-mingw\avr\include\avr\power.h **** #define power_data_fifo_enable()        (PRR2 &= (uint8_t)~(1 << PRDF))
 859:c:\avr-gcc-7.2.0-x64-mingw\avr\include\avr\power.h **** #define power_data_fifo_disable()       (PRR2 |= (uint8_t)(1 << PRDF))
 860:c:\avr-gcc-7.2.0-x64-mingw\avr\include\avr\power.h **** #endif
 861:c:\avr-gcc-7.2.0-x64-mingw\avr\include\avr\power.h **** 
 862:c:\avr-gcc-7.2.0-x64-mingw\avr\include\avr\power.h **** #if defined(__AVR_HAVE_PRR2_PRIDS)
 863:c:\avr-gcc-7.2.0-x64-mingw\avr\include\avr\power.h **** #define power_id_scan_enable()          (PRR2 &= (uint8_t)~(1 << PRIDS))
 864:c:\avr-gcc-7.2.0-x64-mingw\avr\include\avr\power.h **** #define power_id_scan_disable()         (PRR2 |= (uint8_t)(1 << PRIDS))
 865:c:\avr-gcc-7.2.0-x64-mingw\avr\include\avr\power.h **** #endif
 866:c:\avr-gcc-7.2.0-x64-mingw\avr\include\avr\power.h **** 
 867:c:\avr-gcc-7.2.0-x64-mingw\avr\include\avr\power.h **** #if defined(__AVR_HAVE_PRR2_PRRAM0)
 868:c:\avr-gcc-7.2.0-x64-mingw\avr\include\avr\power.h **** #define power_ram0_enable()             (PRR2 &= (uint8_t)~(1 << PRRAM0))
 869:c:\avr-gcc-7.2.0-x64-mingw\avr\include\avr\power.h **** #define power_ram0_disable()            (PRR2 |= (uint8_t)(1 << PRRAM0))
 870:c:\avr-gcc-7.2.0-x64-mingw\avr\include\avr\power.h **** #endif
 871:c:\avr-gcc-7.2.0-x64-mingw\avr\include\avr\power.h **** 
 872:c:\avr-gcc-7.2.0-x64-mingw\avr\include\avr\power.h **** #if defined(__AVR_HAVE_PRR2_PRRAM1)
 873:c:\avr-gcc-7.2.0-x64-mingw\avr\include\avr\power.h **** #define power_ram1_enable()             (PRR2 &= (uint8_t)~(1 << PRRAM1))
 874:c:\avr-gcc-7.2.0-x64-mingw\avr\include\avr\power.h **** #define power_ram1_disable()            (PRR2 |= (uint8_t)(1 << PRRAM1))
 875:c:\avr-gcc-7.2.0-x64-mingw\avr\include\avr\power.h **** #endif
 876:c:\avr-gcc-7.2.0-x64-mingw\avr\include\avr\power.h **** 
 877:c:\avr-gcc-7.2.0-x64-mingw\avr\include\avr\power.h **** #if defined(__AVR_HAVE_PRR2_PRRAM2)
 878:c:\avr-gcc-7.2.0-x64-mingw\avr\include\avr\power.h **** #define power_ram2_enable()             (PRR2 &= (uint8_t)~(1 << PRRAM2))
 879:c:\avr-gcc-7.2.0-x64-mingw\avr\include\avr\power.h **** #define power_ram2_disable()            (PRR2 |= (uint8_t)(1 << PRRAM2))
 880:c:\avr-gcc-7.2.0-x64-mingw\avr\include\avr\power.h **** #endif
 881:c:\avr-gcc-7.2.0-x64-mingw\avr\include\avr\power.h **** 
 882:c:\avr-gcc-7.2.0-x64-mingw\avr\include\avr\power.h **** #if defined(__AVR_HAVE_PRR2_PRRAM3)
 883:c:\avr-gcc-7.2.0-x64-mingw\avr\include\avr\power.h **** #define power_ram3_enable()             (PRR2 &= (uint8_t)~(1 << PRRAM3))
 884:c:\avr-gcc-7.2.0-x64-mingw\avr\include\avr\power.h **** #define power_ram3_disable()            (PRR2 |= (uint8_t)(1 << PRRAM3))
 885:c:\avr-gcc-7.2.0-x64-mingw\avr\include\avr\power.h **** #endif
 886:c:\avr-gcc-7.2.0-x64-mingw\avr\include\avr\power.h **** 
 887:c:\avr-gcc-7.2.0-x64-mingw\avr\include\avr\power.h **** #if defined(__AVR_HAVE_PRR2_PRRS)
 888:c:\avr-gcc-7.2.0-x64-mingw\avr\include\avr\power.h **** #define power_rssi_buffer_enable()      (PRR2 &= (uint8_t)~(1 << PRRS))
 889:c:\avr-gcc-7.2.0-x64-mingw\avr\include\avr\power.h **** #define power_rssi_buffer_disable()     (PRR2 |= (uint8_t)(1 << PRRS))
 890:c:\avr-gcc-7.2.0-x64-mingw\avr\include\avr\power.h **** #endif
 891:c:\avr-gcc-7.2.0-x64-mingw\avr\include\avr\power.h **** 
 892:c:\avr-gcc-7.2.0-x64-mingw\avr\include\avr\power.h **** #if defined(__AVR_HAVE_PRR2_PRSF)
 893:c:\avr-gcc-7.2.0-x64-mingw\avr\include\avr\power.h **** #define power_preamble_rssi_fifo_enable()       (PRR2 &= (uint8_t)~(1 << PRSF))
 894:c:\avr-gcc-7.2.0-x64-mingw\avr\include\avr\power.h **** #define power_preamble_rssi_fifo_disable()      (PRR2 |= (uint8_t)(1 << PRSF))
 895:c:\avr-gcc-7.2.0-x64-mingw\avr\include\avr\power.h **** #endif
 896:c:\avr-gcc-7.2.0-x64-mingw\avr\include\avr\power.h **** 
 897:c:\avr-gcc-7.2.0-x64-mingw\avr\include\avr\power.h **** #if defined(__AVR_HAVE_PRR2_PRSSM)
 898:c:\avr-gcc-7.2.0-x64-mingw\avr\include\avr\power.h **** #define power_sequencer_state_machine_enable()  (PRR2 &= (uint8_t)~(1 << PRSSM))
 899:c:\avr-gcc-7.2.0-x64-mingw\avr\include\avr\power.h **** #define power_sequencer_state_machine_disable() (PRR2 |= (uint8_t)(1 << PRSSM))
 900:c:\avr-gcc-7.2.0-x64-mingw\avr\include\avr\power.h **** #endif
 901:c:\avr-gcc-7.2.0-x64-mingw\avr\include\avr\power.h **** 
 902:c:\avr-gcc-7.2.0-x64-mingw\avr\include\avr\power.h **** #if defined(__AVR_HAVE_PRR2_PRTM)
 903:c:\avr-gcc-7.2.0-x64-mingw\avr\include\avr\power.h **** #define power_tx_modulator_enable()     (PRR2 &= (uint8_t)~(1 << PRTM))
 904:c:\avr-gcc-7.2.0-x64-mingw\avr\include\avr\power.h **** #define power_tx_modulator_disable()    (PRR2 |= (uint8_t)(1 << PRTM))
 905:c:\avr-gcc-7.2.0-x64-mingw\avr\include\avr\power.h **** #endif
 906:c:\avr-gcc-7.2.0-x64-mingw\avr\include\avr\power.h **** 
 907:c:\avr-gcc-7.2.0-x64-mingw\avr\include\avr\power.h **** #if defined(__AVR_HAVE_PRR2_PRXA)
 908:c:\avr-gcc-7.2.0-x64-mingw\avr\include\avr\power.h **** #define power_rx_buffer_A_enable()      (PRR2 &= (uint8_t)~(1 << PRXA))
 909:c:\avr-gcc-7.2.0-x64-mingw\avr\include\avr\power.h **** #define power_rx_buffer_A_disable()     (PRR2 |= (uint8_t)(1 << PRXA))
 910:c:\avr-gcc-7.2.0-x64-mingw\avr\include\avr\power.h **** #endif
 911:c:\avr-gcc-7.2.0-x64-mingw\avr\include\avr\power.h **** 
 912:c:\avr-gcc-7.2.0-x64-mingw\avr\include\avr\power.h **** #if defined(__AVR_HAVE_PRR2_PRXB)
 913:c:\avr-gcc-7.2.0-x64-mingw\avr\include\avr\power.h **** #define power_rx_buffer_B_enable()      (PRR2 &= (uint8_t)~(1 << PRXB))
 914:c:\avr-gcc-7.2.0-x64-mingw\avr\include\avr\power.h **** #define power_rx_buffer_B_disable()     (PRR2 |= (uint8_t)(1 << PRXB))
 915:c:\avr-gcc-7.2.0-x64-mingw\avr\include\avr\power.h **** #endif
 916:c:\avr-gcc-7.2.0-x64-mingw\avr\include\avr\power.h **** 
 917:c:\avr-gcc-7.2.0-x64-mingw\avr\include\avr\power.h **** #if defined(__AVR_HAVE_PRGEN_AES)
 918:c:\avr-gcc-7.2.0-x64-mingw\avr\include\avr\power.h **** #define power_aes_enable()              (PR_PRGEN &= (uint8_t)~(PR_AES_bm))
 919:c:\avr-gcc-7.2.0-x64-mingw\avr\include\avr\power.h **** #define power_aes_disable()             (PR_PRGEN |= (uint8_t)PR_AES_bm)
 920:c:\avr-gcc-7.2.0-x64-mingw\avr\include\avr\power.h **** #endif
 921:c:\avr-gcc-7.2.0-x64-mingw\avr\include\avr\power.h **** 
 922:c:\avr-gcc-7.2.0-x64-mingw\avr\include\avr\power.h **** #if defined(__AVR_HAVE_PRGEN_DMA)
 923:c:\avr-gcc-7.2.0-x64-mingw\avr\include\avr\power.h **** #define power_dma_enable()              (PR_PRGEN &= (uint8_t)~(PR_DMA_bm))
 924:c:\avr-gcc-7.2.0-x64-mingw\avr\include\avr\power.h **** #define power_dma_disable()             (PR_PRGEN |= (uint8_t)PR_DMA_bm)
 925:c:\avr-gcc-7.2.0-x64-mingw\avr\include\avr\power.h **** #endif
 926:c:\avr-gcc-7.2.0-x64-mingw\avr\include\avr\power.h **** 
 927:c:\avr-gcc-7.2.0-x64-mingw\avr\include\avr\power.h **** #if defined(__AVR_HAVE_PRGEN_EBI)
 928:c:\avr-gcc-7.2.0-x64-mingw\avr\include\avr\power.h **** #define power_ebi_enable()              (PR_PRGEN &= (uint8_t)~(PR_EBI_bm))
 929:c:\avr-gcc-7.2.0-x64-mingw\avr\include\avr\power.h **** #define power_ebi_disable()             (PR_PRGEN |= (uint8_t)PR_EBI_bm)
 930:c:\avr-gcc-7.2.0-x64-mingw\avr\include\avr\power.h **** #endif
 931:c:\avr-gcc-7.2.0-x64-mingw\avr\include\avr\power.h **** 
 932:c:\avr-gcc-7.2.0-x64-mingw\avr\include\avr\power.h **** #if defined(__AVR_HAVE_PRGEN_EDMA)
 933:c:\avr-gcc-7.2.0-x64-mingw\avr\include\avr\power.h **** #define power_edma_enable()             (PR_PRGEN &= (uint8_t)~(PR_EDMA_bm))
 934:c:\avr-gcc-7.2.0-x64-mingw\avr\include\avr\power.h **** #define power_edma_disable()            (PR_PRGEN |= (uint8_t)PR_EDMA_bm)
 935:c:\avr-gcc-7.2.0-x64-mingw\avr\include\avr\power.h **** #endif
 936:c:\avr-gcc-7.2.0-x64-mingw\avr\include\avr\power.h **** 
 937:c:\avr-gcc-7.2.0-x64-mingw\avr\include\avr\power.h **** #if defined(__AVR_HAVE_PRGEN_EVSYS)
 938:c:\avr-gcc-7.2.0-x64-mingw\avr\include\avr\power.h **** #define power_evsys_enable()            (PR_PRGEN &= (uint8_t)~(PR_EVSYS_bm))
 939:c:\avr-gcc-7.2.0-x64-mingw\avr\include\avr\power.h **** #define power_evsys_disable()           (PR_PRGEN |= (uint8_t)PR_EVSYS_bm)
 940:c:\avr-gcc-7.2.0-x64-mingw\avr\include\avr\power.h **** #endif
 941:c:\avr-gcc-7.2.0-x64-mingw\avr\include\avr\power.h **** 
 942:c:\avr-gcc-7.2.0-x64-mingw\avr\include\avr\power.h **** #if defined(__AVR_HAVE_PRGEN_LCD)
 943:c:\avr-gcc-7.2.0-x64-mingw\avr\include\avr\power.h **** #define power_lcd_enable()              (PR_PRGEN &= (uint8_t)~(PR_LCD_bm))
 944:c:\avr-gcc-7.2.0-x64-mingw\avr\include\avr\power.h **** #define power_lcd_disable()             (PR_PRGEN |= (uint8_t)PR_LCD_bm)
 945:c:\avr-gcc-7.2.0-x64-mingw\avr\include\avr\power.h **** #endif
 946:c:\avr-gcc-7.2.0-x64-mingw\avr\include\avr\power.h **** 
 947:c:\avr-gcc-7.2.0-x64-mingw\avr\include\avr\power.h **** #if defined(__AVR_HAVE_PRGEN_RTC)
 948:c:\avr-gcc-7.2.0-x64-mingw\avr\include\avr\power.h **** #define power_rtc_enable()              (PR_PRGEN &= (uint8_t)~(PR_RTC_bm))
 949:c:\avr-gcc-7.2.0-x64-mingw\avr\include\avr\power.h **** #define power_rtc_disable()             (PR_PRGEN |= (uint8_t)PR_RTC_bm)
 950:c:\avr-gcc-7.2.0-x64-mingw\avr\include\avr\power.h **** #endif
 951:c:\avr-gcc-7.2.0-x64-mingw\avr\include\avr\power.h **** 
 952:c:\avr-gcc-7.2.0-x64-mingw\avr\include\avr\power.h **** #if defined(__AVR_HAVE_PRGEN_USB)
 953:c:\avr-gcc-7.2.0-x64-mingw\avr\include\avr\power.h **** #define power_usb_enable()              (PR_PRGEN &= (uint8_t)~(PR_USB_bm))
 954:c:\avr-gcc-7.2.0-x64-mingw\avr\include\avr\power.h **** #define power_usb_disable()             (PR_PRGEN &= (uint8_t)(PR_USB_bm))
 955:c:\avr-gcc-7.2.0-x64-mingw\avr\include\avr\power.h **** #endif
 956:c:\avr-gcc-7.2.0-x64-mingw\avr\include\avr\power.h **** 
 957:c:\avr-gcc-7.2.0-x64-mingw\avr\include\avr\power.h **** #if defined(__AVR_HAVE_PRGEN_XCL)
 958:c:\avr-gcc-7.2.0-x64-mingw\avr\include\avr\power.h **** #define power_xcl_enable()              (PR_PRGEN &= (uint8_t)~(PR_XCL_bm))
 959:c:\avr-gcc-7.2.0-x64-mingw\avr\include\avr\power.h **** #define power_xcl_disable()             (PR_PRGEN |= (uint8_t)PR_XCL_bm)
 960:c:\avr-gcc-7.2.0-x64-mingw\avr\include\avr\power.h **** #endif
 961:c:\avr-gcc-7.2.0-x64-mingw\avr\include\avr\power.h **** 
 962:c:\avr-gcc-7.2.0-x64-mingw\avr\include\avr\power.h **** #if defined(__AVR_HAVE_PRPA_AC)
 963:c:\avr-gcc-7.2.0-x64-mingw\avr\include\avr\power.h **** #define power_aca_enable()      (PR_PRPA &= (uint8_t)~(PR_AC_bm))
 964:c:\avr-gcc-7.2.0-x64-mingw\avr\include\avr\power.h **** #define power_aca_disable()     (PR_PRPA |= (uint8_t)PR_AC_bm)
 965:c:\avr-gcc-7.2.0-x64-mingw\avr\include\avr\power.h **** #endif
 966:c:\avr-gcc-7.2.0-x64-mingw\avr\include\avr\power.h **** 
 967:c:\avr-gcc-7.2.0-x64-mingw\avr\include\avr\power.h **** #if defined(__AVR_HAVE_PRPA_ADC)
 968:c:\avr-gcc-7.2.0-x64-mingw\avr\include\avr\power.h **** #define power_adca_enable()     (PR_PRPA &= (uint8_t)~(PR_ADC_bm))
 969:c:\avr-gcc-7.2.0-x64-mingw\avr\include\avr\power.h **** #define power_adca_disable()    (PR_PRPA |= (uint8_t)PR_ADC_bm)
 970:c:\avr-gcc-7.2.0-x64-mingw\avr\include\avr\power.h **** #endif
 971:c:\avr-gcc-7.2.0-x64-mingw\avr\include\avr\power.h **** 
 972:c:\avr-gcc-7.2.0-x64-mingw\avr\include\avr\power.h **** #if defined(__AVR_HAVE_PRPA_DAC)
 973:c:\avr-gcc-7.2.0-x64-mingw\avr\include\avr\power.h **** #define power_daca_enable()     (PR_PRPA &= (uint8_t)~(PR_DAC_bm))
 974:c:\avr-gcc-7.2.0-x64-mingw\avr\include\avr\power.h **** #define power_daca_disable()    (PR_PRPA |= (uint8_t)PR_DAC_bm)
 975:c:\avr-gcc-7.2.0-x64-mingw\avr\include\avr\power.h **** #endif
 976:c:\avr-gcc-7.2.0-x64-mingw\avr\include\avr\power.h **** 
 977:c:\avr-gcc-7.2.0-x64-mingw\avr\include\avr\power.h **** #if defined(__AVR_HAVE_PRPB_AC)
 978:c:\avr-gcc-7.2.0-x64-mingw\avr\include\avr\power.h **** #define power_acb_enable()      (PR_PRPB &= (uint8_t)~(PR_AC_bm))
 979:c:\avr-gcc-7.2.0-x64-mingw\avr\include\avr\power.h **** #define power_acb_disable()     (PR_PRPB |= (uint8_t)PR_AC_bm)
 980:c:\avr-gcc-7.2.0-x64-mingw\avr\include\avr\power.h **** #endif
 981:c:\avr-gcc-7.2.0-x64-mingw\avr\include\avr\power.h **** 
 982:c:\avr-gcc-7.2.0-x64-mingw\avr\include\avr\power.h **** #if defined(__AVR_HAVE_PRPB_ADC)
 983:c:\avr-gcc-7.2.0-x64-mingw\avr\include\avr\power.h **** #define power_adcb_enable()     (PR_PRPB &= (uint8_t)~(PR_ADC_bm))
 984:c:\avr-gcc-7.2.0-x64-mingw\avr\include\avr\power.h **** #define power_adcb_disable()    (PR_PRPB |= (uint8_t)PR_ADC_bm)
 985:c:\avr-gcc-7.2.0-x64-mingw\avr\include\avr\power.h **** #endif
 986:c:\avr-gcc-7.2.0-x64-mingw\avr\include\avr\power.h **** 
 987:c:\avr-gcc-7.2.0-x64-mingw\avr\include\avr\power.h **** #if defined(__AVR_HAVE_PRPB_DAC)
 988:c:\avr-gcc-7.2.0-x64-mingw\avr\include\avr\power.h **** #define power_dacb_enable()     (PR_PRPB &= (uint8_t)~(PR_DAC_bm))
 989:c:\avr-gcc-7.2.0-x64-mingw\avr\include\avr\power.h **** #define power_dacb_disable()    (PR_PRPB |= (uint8_t)PR_DAC_bm)
 990:c:\avr-gcc-7.2.0-x64-mingw\avr\include\avr\power.h **** #endif
 991:c:\avr-gcc-7.2.0-x64-mingw\avr\include\avr\power.h **** 
 992:c:\avr-gcc-7.2.0-x64-mingw\avr\include\avr\power.h **** #if defined(__AVR_HAVE_PRPC_HIRES)
 993:c:\avr-gcc-7.2.0-x64-mingw\avr\include\avr\power.h **** #define power_hiresc_enable()   (PR_PRPC &= (uint8_t)~(PR_HIRES_bm))
 994:c:\avr-gcc-7.2.0-x64-mingw\avr\include\avr\power.h **** #define power_hiresc_disable()  (PR_PRPC |= (uint8_t)PR_HIRES_bm)
 995:c:\avr-gcc-7.2.0-x64-mingw\avr\include\avr\power.h **** #endif
 996:c:\avr-gcc-7.2.0-x64-mingw\avr\include\avr\power.h **** 
 997:c:\avr-gcc-7.2.0-x64-mingw\avr\include\avr\power.h **** #if defined(__AVR_HAVE_PRPC_SPI)
 998:c:\avr-gcc-7.2.0-x64-mingw\avr\include\avr\power.h **** #define power_spic_enable()     (PR_PRPC &= (uint8_t)~(PR_SPI_bm))
 999:c:\avr-gcc-7.2.0-x64-mingw\avr\include\avr\power.h **** #define power_spic_disable()    (PR_PRPC |= (uint8_t)PR_SPI_bm)
1000:c:\avr-gcc-7.2.0-x64-mingw\avr\include\avr\power.h **** #endif
1001:c:\avr-gcc-7.2.0-x64-mingw\avr\include\avr\power.h **** 
1002:c:\avr-gcc-7.2.0-x64-mingw\avr\include\avr\power.h **** #if defined(__AVR_HAVE_PRPC_TC0)
1003:c:\avr-gcc-7.2.0-x64-mingw\avr\include\avr\power.h **** #define power_tc0c_enable()     (PR_PRPC &= (uint8_t)~(PR_TC0_bm))
1004:c:\avr-gcc-7.2.0-x64-mingw\avr\include\avr\power.h **** #define power_tc0c_disable()    (PR_PRPC |= (uint8_t)PR_TC0_bm)
1005:c:\avr-gcc-7.2.0-x64-mingw\avr\include\avr\power.h **** #endif
1006:c:\avr-gcc-7.2.0-x64-mingw\avr\include\avr\power.h **** 
1007:c:\avr-gcc-7.2.0-x64-mingw\avr\include\avr\power.h **** #if defined(__AVR_HAVE_PRPC_TC1)
1008:c:\avr-gcc-7.2.0-x64-mingw\avr\include\avr\power.h **** #define power_tc1c_enable()     (PR_PRPC &= (uint8_t)~(PR_TC1_bm))
1009:c:\avr-gcc-7.2.0-x64-mingw\avr\include\avr\power.h **** #define power_tc1c_disable()    (PR_PRPC |= (uint8_t)PR_TC1_bm)
1010:c:\avr-gcc-7.2.0-x64-mingw\avr\include\avr\power.h **** #endif
1011:c:\avr-gcc-7.2.0-x64-mingw\avr\include\avr\power.h **** 
1012:c:\avr-gcc-7.2.0-x64-mingw\avr\include\avr\power.h **** #if defined(__AVR_HAVE_PRPC_TC4)
1013:c:\avr-gcc-7.2.0-x64-mingw\avr\include\avr\power.h **** #define power_tc4c_enable()     (PR_PRPC  &= (uint8_t)~(PR_TC4_bm))
1014:c:\avr-gcc-7.2.0-x64-mingw\avr\include\avr\power.h **** #define power_tc4c_disable()    (PR_PRPC  |= (uint8_t)PR_TC4_bm)
1015:c:\avr-gcc-7.2.0-x64-mingw\avr\include\avr\power.h **** #endif
1016:c:\avr-gcc-7.2.0-x64-mingw\avr\include\avr\power.h **** 
1017:c:\avr-gcc-7.2.0-x64-mingw\avr\include\avr\power.h **** #if defined(__AVR_HAVE_PRPC_TC5)
1018:c:\avr-gcc-7.2.0-x64-mingw\avr\include\avr\power.h **** #define power_tc5c_enable()     (PR_PRPC  &= (uint8_t)~(PR_TC5_bm))
1019:c:\avr-gcc-7.2.0-x64-mingw\avr\include\avr\power.h **** #define power_tc5c_disable()    (PR_PRPC  |= (uint8_t)PR_TC5_bm)
1020:c:\avr-gcc-7.2.0-x64-mingw\avr\include\avr\power.h **** #endif
1021:c:\avr-gcc-7.2.0-x64-mingw\avr\include\avr\power.h **** 
1022:c:\avr-gcc-7.2.0-x64-mingw\avr\include\avr\power.h **** #if defined(__AVR_HAVE_PRPC_TWI)
1023:c:\avr-gcc-7.2.0-x64-mingw\avr\include\avr\power.h **** #define power_twic_enable()     (PR_PRPC &= (uint8_t)~(PR_TWI_bm))
1024:c:\avr-gcc-7.2.0-x64-mingw\avr\include\avr\power.h **** #define power_twic_disable()    (PR_PRPC |= (uint8_t)PR_TWI_bm)
1025:c:\avr-gcc-7.2.0-x64-mingw\avr\include\avr\power.h **** #endif
1026:c:\avr-gcc-7.2.0-x64-mingw\avr\include\avr\power.h **** 
1027:c:\avr-gcc-7.2.0-x64-mingw\avr\include\avr\power.h **** #if defined(__AVR_HAVE_PRPC_USART0)
1028:c:\avr-gcc-7.2.0-x64-mingw\avr\include\avr\power.h **** #define power_usartc0_enable()  (PR_PRPC &= (uint8_t)~(PR_USART0_bm))
1029:c:\avr-gcc-7.2.0-x64-mingw\avr\include\avr\power.h **** #define power_usartc0_disable() (PR_PRPC |= (uint8_t)PR_USART0_bm)
1030:c:\avr-gcc-7.2.0-x64-mingw\avr\include\avr\power.h **** #endif
1031:c:\avr-gcc-7.2.0-x64-mingw\avr\include\avr\power.h **** 
1032:c:\avr-gcc-7.2.0-x64-mingw\avr\include\avr\power.h **** #if defined(__AVR_HAVE_PRPC_USART1)
1033:c:\avr-gcc-7.2.0-x64-mingw\avr\include\avr\power.h **** #define power_usartc1_enable()  (PR_PRPC &= (uint8_t)~(PR_USART1_bm))
1034:c:\avr-gcc-7.2.0-x64-mingw\avr\include\avr\power.h **** #define power_usartc1_disable() (PR_PRPC |= (uint8_t)PR_USART1_bm)
1035:c:\avr-gcc-7.2.0-x64-mingw\avr\include\avr\power.h **** #endif
1036:c:\avr-gcc-7.2.0-x64-mingw\avr\include\avr\power.h **** 
1037:c:\avr-gcc-7.2.0-x64-mingw\avr\include\avr\power.h **** #if defined(__AVR_HAVE_PRPD_HIRES)
1038:c:\avr-gcc-7.2.0-x64-mingw\avr\include\avr\power.h **** #define power_hiresd_enable()   (PR_PRPD &= (uint8_t)~(PR_HIRES_bm))
1039:c:\avr-gcc-7.2.0-x64-mingw\avr\include\avr\power.h **** #define power_hiresd_disable()  (PR_PRPD |= (uint8_t)PR_HIRES_bm)
1040:c:\avr-gcc-7.2.0-x64-mingw\avr\include\avr\power.h **** #endif
1041:c:\avr-gcc-7.2.0-x64-mingw\avr\include\avr\power.h **** 
1042:c:\avr-gcc-7.2.0-x64-mingw\avr\include\avr\power.h **** #if defined(__AVR_HAVE_PRPD_SPI)
1043:c:\avr-gcc-7.2.0-x64-mingw\avr\include\avr\power.h **** #define power_spid_enable()     (PR_PRPD &= (uint8_t)~(PR_SPI_bm))
1044:c:\avr-gcc-7.2.0-x64-mingw\avr\include\avr\power.h **** #define power_spid_disable()    (PR_PRPD |= (uint8_t)PR_SPI_bm)
1045:c:\avr-gcc-7.2.0-x64-mingw\avr\include\avr\power.h **** #endif
1046:c:\avr-gcc-7.2.0-x64-mingw\avr\include\avr\power.h **** 
1047:c:\avr-gcc-7.2.0-x64-mingw\avr\include\avr\power.h **** #if defined(__AVR_HAVE_PRPD_TC0)
1048:c:\avr-gcc-7.2.0-x64-mingw\avr\include\avr\power.h **** #define power_tc0d_enable()     (PR_PRPD &= (uint8_t)~(PR_TC0_bm))
1049:c:\avr-gcc-7.2.0-x64-mingw\avr\include\avr\power.h **** #define power_tc0d_disable()    (PR_PRPD |= (uint8_t)PR_TC0_bm)
1050:c:\avr-gcc-7.2.0-x64-mingw\avr\include\avr\power.h **** #endif
1051:c:\avr-gcc-7.2.0-x64-mingw\avr\include\avr\power.h **** 
1052:c:\avr-gcc-7.2.0-x64-mingw\avr\include\avr\power.h **** #if defined(__AVR_HAVE_PRPD_TC1)
1053:c:\avr-gcc-7.2.0-x64-mingw\avr\include\avr\power.h **** #define power_tc1d_enable()     (PR_PRPD &= (uint8_t)~(PR_TC1_bm))
1054:c:\avr-gcc-7.2.0-x64-mingw\avr\include\avr\power.h **** #define power_tc1d_disable()    (PR_PRPD |= (uint8_t)PR_TC1_bm)
1055:c:\avr-gcc-7.2.0-x64-mingw\avr\include\avr\power.h **** #endif
1056:c:\avr-gcc-7.2.0-x64-mingw\avr\include\avr\power.h **** 
1057:c:\avr-gcc-7.2.0-x64-mingw\avr\include\avr\power.h **** #if defined(__AVR_HAVE_PRPD_TC5)
1058:c:\avr-gcc-7.2.0-x64-mingw\avr\include\avr\power.h **** #define power_tc5d_enable()     (PR_PRPD  &= (uint8_t)~(PR_TC5_bm))
1059:c:\avr-gcc-7.2.0-x64-mingw\avr\include\avr\power.h **** #define power_tc5d_disable()    (PR_PRPD  |= (uint8_t)PR_TC5_bm)
1060:c:\avr-gcc-7.2.0-x64-mingw\avr\include\avr\power.h **** #endif
1061:c:\avr-gcc-7.2.0-x64-mingw\avr\include\avr\power.h **** 
1062:c:\avr-gcc-7.2.0-x64-mingw\avr\include\avr\power.h **** #if defined(__AVR_HAVE_PRPD_TWI)
1063:c:\avr-gcc-7.2.0-x64-mingw\avr\include\avr\power.h **** #define power_twid_enable()     (PR_PRPD &= (uint8_t)~(PR_TWI_bm))
1064:c:\avr-gcc-7.2.0-x64-mingw\avr\include\avr\power.h **** #define power_twid_disable()    (PR_PRPD |= (uint8_t)PR_TWI_bm)
1065:c:\avr-gcc-7.2.0-x64-mingw\avr\include\avr\power.h **** #endif
1066:c:\avr-gcc-7.2.0-x64-mingw\avr\include\avr\power.h **** 
1067:c:\avr-gcc-7.2.0-x64-mingw\avr\include\avr\power.h **** #if defined(__AVR_HAVE_PRPD_USART0)
1068:c:\avr-gcc-7.2.0-x64-mingw\avr\include\avr\power.h **** #define power_usartd0_enable()  (PR_PRPD &= (uint8_t)~(PR_USART0_bm))
1069:c:\avr-gcc-7.2.0-x64-mingw\avr\include\avr\power.h **** #define power_usartd0_disable() (PR_PRPD |= (uint8_t)PR_USART0_bm)
1070:c:\avr-gcc-7.2.0-x64-mingw\avr\include\avr\power.h **** #endif
1071:c:\avr-gcc-7.2.0-x64-mingw\avr\include\avr\power.h **** 
1072:c:\avr-gcc-7.2.0-x64-mingw\avr\include\avr\power.h **** #if defined(__AVR_HAVE_PRPD_USART1)
1073:c:\avr-gcc-7.2.0-x64-mingw\avr\include\avr\power.h **** #define power_usartd1_enable()  (PR_PRPD &= (uint8_t)~(PR_USART1_bm))
1074:c:\avr-gcc-7.2.0-x64-mingw\avr\include\avr\power.h **** #define power_usartd1_disable() (PR_PRPD |= (uint8_t)PR_USART1_bm)
1075:c:\avr-gcc-7.2.0-x64-mingw\avr\include\avr\power.h **** #endif
1076:c:\avr-gcc-7.2.0-x64-mingw\avr\include\avr\power.h **** 
1077:c:\avr-gcc-7.2.0-x64-mingw\avr\include\avr\power.h **** #if defined(__AVR_HAVE_PRPE_HIRES)
1078:c:\avr-gcc-7.2.0-x64-mingw\avr\include\avr\power.h **** #define power_hirese_enable()   (PR_PRPE &= (uint8_t)~(PR_HIRES_bm))
1079:c:\avr-gcc-7.2.0-x64-mingw\avr\include\avr\power.h **** #define power_hirese_disable()  (PR_PRPE |= (uint8_t)PR_HIRES_bm)
1080:c:\avr-gcc-7.2.0-x64-mingw\avr\include\avr\power.h **** #endif
1081:c:\avr-gcc-7.2.0-x64-mingw\avr\include\avr\power.h **** 
1082:c:\avr-gcc-7.2.0-x64-mingw\avr\include\avr\power.h **** #if defined(__AVR_HAVE_PRPE_SPI)
1083:c:\avr-gcc-7.2.0-x64-mingw\avr\include\avr\power.h **** #define power_spie_enable()     (PR_PRPE &= (uint8_t)~(PR_SPI_bm))
1084:c:\avr-gcc-7.2.0-x64-mingw\avr\include\avr\power.h **** #define power_spie_disable()    (PR_PRPE |= (uint8_t)PR_SPI_bm)
1085:c:\avr-gcc-7.2.0-x64-mingw\avr\include\avr\power.h **** #endif
1086:c:\avr-gcc-7.2.0-x64-mingw\avr\include\avr\power.h **** 
1087:c:\avr-gcc-7.2.0-x64-mingw\avr\include\avr\power.h **** #if defined(__AVR_HAVE_PRPE_TC0)
1088:c:\avr-gcc-7.2.0-x64-mingw\avr\include\avr\power.h **** #define power_tc0e_enable()     (PR_PRPE &= (uint8_t)~(PR_TC0_bm))
1089:c:\avr-gcc-7.2.0-x64-mingw\avr\include\avr\power.h **** #define power_tc0e_disable()    (PR_PRPE |= (uint8_t)PR_TC0_bm)
1090:c:\avr-gcc-7.2.0-x64-mingw\avr\include\avr\power.h **** #endif
1091:c:\avr-gcc-7.2.0-x64-mingw\avr\include\avr\power.h **** 
1092:c:\avr-gcc-7.2.0-x64-mingw\avr\include\avr\power.h **** #if defined(__AVR_HAVE_PRPE_TC1)
1093:c:\avr-gcc-7.2.0-x64-mingw\avr\include\avr\power.h **** #define power_tc1e_enable()     (PR_PRPE &= (uint8_t)~(PR_TC1_bm))
1094:c:\avr-gcc-7.2.0-x64-mingw\avr\include\avr\power.h **** #define power_tc1e_disable()    (PR_PRPE |= (uint8_t)PR_TC1_bm)
1095:c:\avr-gcc-7.2.0-x64-mingw\avr\include\avr\power.h **** #endif
1096:c:\avr-gcc-7.2.0-x64-mingw\avr\include\avr\power.h **** 
1097:c:\avr-gcc-7.2.0-x64-mingw\avr\include\avr\power.h **** #if defined(__AVR_HAVE_PRPE_TWI)
1098:c:\avr-gcc-7.2.0-x64-mingw\avr\include\avr\power.h **** #define power_twie_enable()     (PR_PRPE &= (uint8_t)~(PR_TWI_bm))
1099:c:\avr-gcc-7.2.0-x64-mingw\avr\include\avr\power.h **** #define power_twie_disable()    (PR_PRPE |= (uint8_t)PR_TWI_bm)
1100:c:\avr-gcc-7.2.0-x64-mingw\avr\include\avr\power.h **** #endif
1101:c:\avr-gcc-7.2.0-x64-mingw\avr\include\avr\power.h **** 
1102:c:\avr-gcc-7.2.0-x64-mingw\avr\include\avr\power.h **** #if defined(__AVR_HAVE_PRPE_USART0)
1103:c:\avr-gcc-7.2.0-x64-mingw\avr\include\avr\power.h **** #define power_usarte0_enable()  (PR_PRPE &= (uint8_t)~(PR_USART0_bm))
1104:c:\avr-gcc-7.2.0-x64-mingw\avr\include\avr\power.h **** #define power_usarte0_disable() (PR_PRPE |= (uint8_t)PR_USART0_bm)
1105:c:\avr-gcc-7.2.0-x64-mingw\avr\include\avr\power.h **** #endif
1106:c:\avr-gcc-7.2.0-x64-mingw\avr\include\avr\power.h **** 
1107:c:\avr-gcc-7.2.0-x64-mingw\avr\include\avr\power.h **** #if defined(__AVR_HAVE_PRPE_USART1)
1108:c:\avr-gcc-7.2.0-x64-mingw\avr\include\avr\power.h **** #define power_usarte1_enable()  (PR_PRPE &= (uint8_t)~(PR_USART1_bm))
1109:c:\avr-gcc-7.2.0-x64-mingw\avr\include\avr\power.h **** #define power_usarte1_disable() (PR_PRPE |= (uint8_t)PR_USART1_bm)
1110:c:\avr-gcc-7.2.0-x64-mingw\avr\include\avr\power.h **** #endif
1111:c:\avr-gcc-7.2.0-x64-mingw\avr\include\avr\power.h **** 
1112:c:\avr-gcc-7.2.0-x64-mingw\avr\include\avr\power.h **** #if defined(__AVR_HAVE_PRPF_HIRES)
1113:c:\avr-gcc-7.2.0-x64-mingw\avr\include\avr\power.h **** #define power_hiresf_enable()   (PR_PRPF &= (uint8_t)~(PR_HIRES_bm))
1114:c:\avr-gcc-7.2.0-x64-mingw\avr\include\avr\power.h **** #define power_hiresf_disable()  (PR_PRPF |= (uint8_t)PR_HIRES_bm)
1115:c:\avr-gcc-7.2.0-x64-mingw\avr\include\avr\power.h **** #endif
1116:c:\avr-gcc-7.2.0-x64-mingw\avr\include\avr\power.h **** 
1117:c:\avr-gcc-7.2.0-x64-mingw\avr\include\avr\power.h **** #if defined(__AVR_HAVE_PRPF_SPI)
1118:c:\avr-gcc-7.2.0-x64-mingw\avr\include\avr\power.h **** #define power_spif_enable()     (PR_PRPF &= (uint8_t)~(PR_SPI_bm))
1119:c:\avr-gcc-7.2.0-x64-mingw\avr\include\avr\power.h **** #define power_spif_disable()    (PR_PRPF |= (uint8_t)PR_SPI_bm)
1120:c:\avr-gcc-7.2.0-x64-mingw\avr\include\avr\power.h **** #endif
1121:c:\avr-gcc-7.2.0-x64-mingw\avr\include\avr\power.h **** 
1122:c:\avr-gcc-7.2.0-x64-mingw\avr\include\avr\power.h **** #if defined(__AVR_HAVE_PRPF_TC0)
1123:c:\avr-gcc-7.2.0-x64-mingw\avr\include\avr\power.h **** #define power_tc0f_enable()     (PR_PRPF &= (uint8_t)~(PR_TC0_bm))
1124:c:\avr-gcc-7.2.0-x64-mingw\avr\include\avr\power.h **** #define power_tc0f_disable()    (PR_PRPF |= (uint8_t)PR_TC0_bm)
1125:c:\avr-gcc-7.2.0-x64-mingw\avr\include\avr\power.h **** #endif
1126:c:\avr-gcc-7.2.0-x64-mingw\avr\include\avr\power.h **** 
1127:c:\avr-gcc-7.2.0-x64-mingw\avr\include\avr\power.h **** #if defined(__AVR_HAVE_PRPF_TC1)
1128:c:\avr-gcc-7.2.0-x64-mingw\avr\include\avr\power.h **** #define power_tc1f_enable()     (PR_PRPF &= (uint8_t)~(PR_TC1_bm))
1129:c:\avr-gcc-7.2.0-x64-mingw\avr\include\avr\power.h **** #define power_tc1f_disable()    (PR_PRPF |= (uint8_t)PR_TC1_bm)
1130:c:\avr-gcc-7.2.0-x64-mingw\avr\include\avr\power.h **** #endif
1131:c:\avr-gcc-7.2.0-x64-mingw\avr\include\avr\power.h **** 
1132:c:\avr-gcc-7.2.0-x64-mingw\avr\include\avr\power.h **** #if defined(__AVR_HAVE_PRPF_TWI)
1133:c:\avr-gcc-7.2.0-x64-mingw\avr\include\avr\power.h **** #define power_twif_enable()     (PR_PRPF &= (uint8_t)~(PR_TWI_bm))
1134:c:\avr-gcc-7.2.0-x64-mingw\avr\include\avr\power.h **** #define power_twif_disable()    (PR_PRPF |= (uint8_t)PR_TWI_bm)
1135:c:\avr-gcc-7.2.0-x64-mingw\avr\include\avr\power.h **** #endif
1136:c:\avr-gcc-7.2.0-x64-mingw\avr\include\avr\power.h **** 
1137:c:\avr-gcc-7.2.0-x64-mingw\avr\include\avr\power.h **** #if defined(__AVR_HAVE_PRPF_USART0)
1138:c:\avr-gcc-7.2.0-x64-mingw\avr\include\avr\power.h **** #define power_usartf0_enable()  (PR_PRPF &= (uint8_t)~(PR_USART0_bm))
1139:c:\avr-gcc-7.2.0-x64-mingw\avr\include\avr\power.h **** #define power_usartf0_disable() (PR_PRPF |= (uint8_t)PR_USART0_bm)
1140:c:\avr-gcc-7.2.0-x64-mingw\avr\include\avr\power.h **** #endif
1141:c:\avr-gcc-7.2.0-x64-mingw\avr\include\avr\power.h **** 
1142:c:\avr-gcc-7.2.0-x64-mingw\avr\include\avr\power.h **** #if defined(__AVR_HAVE_PRPF_USART1)
1143:c:\avr-gcc-7.2.0-x64-mingw\avr\include\avr\power.h **** #define power_usartf1_enable()  (PR_PRPF &= (uint8_t)~(PR_USART1_bm))
1144:c:\avr-gcc-7.2.0-x64-mingw\avr\include\avr\power.h **** #define power_usartf1_disable() (PR_PRPF |= (uint8_t)PR_USART1_bm)
1145:c:\avr-gcc-7.2.0-x64-mingw\avr\include\avr\power.h **** #endif
1146:c:\avr-gcc-7.2.0-x64-mingw\avr\include\avr\power.h **** 
1147:c:\avr-gcc-7.2.0-x64-mingw\avr\include\avr\power.h **** static __inline void
1148:c:\avr-gcc-7.2.0-x64-mingw\avr\include\avr\power.h **** __attribute__ ((__always_inline__))
1149:c:\avr-gcc-7.2.0-x64-mingw\avr\include\avr\power.h **** __power_all_enable()
1150:c:\avr-gcc-7.2.0-x64-mingw\avr\include\avr\power.h **** {
1151:c:\avr-gcc-7.2.0-x64-mingw\avr\include\avr\power.h **** #ifdef __AVR_HAVE_PRR
1152:c:\avr-gcc-7.2.0-x64-mingw\avr\include\avr\power.h ****     PRR &= (uint8_t)~(__AVR_HAVE_PRR);
1153:c:\avr-gcc-7.2.0-x64-mingw\avr\include\avr\power.h **** #endif
1154:c:\avr-gcc-7.2.0-x64-mingw\avr\include\avr\power.h **** 
1155:c:\avr-gcc-7.2.0-x64-mingw\avr\include\avr\power.h **** #ifdef __AVR_HAVE_PRR0
1156:c:\avr-gcc-7.2.0-x64-mingw\avr\include\avr\power.h ****     PRR0 &= (uint8_t)~(__AVR_HAVE_PRR0);
1157:c:\avr-gcc-7.2.0-x64-mingw\avr\include\avr\power.h **** #endif
1158:c:\avr-gcc-7.2.0-x64-mingw\avr\include\avr\power.h **** 
1159:c:\avr-gcc-7.2.0-x64-mingw\avr\include\avr\power.h **** #ifdef __AVR_HAVE_PRR1
1160:c:\avr-gcc-7.2.0-x64-mingw\avr\include\avr\power.h ****     PRR1 &= (uint8_t)~(__AVR_HAVE_PRR1);
1161:c:\avr-gcc-7.2.0-x64-mingw\avr\include\avr\power.h **** #endif
1162:c:\avr-gcc-7.2.0-x64-mingw\avr\include\avr\power.h **** 
1163:c:\avr-gcc-7.2.0-x64-mingw\avr\include\avr\power.h **** #ifdef __AVR_HAVE_PRR2
1164:c:\avr-gcc-7.2.0-x64-mingw\avr\include\avr\power.h ****    PRR2 &= (uint8_t)~(__AVR_HAVE_PRR2);
1165:c:\avr-gcc-7.2.0-x64-mingw\avr\include\avr\power.h **** #endif
1166:c:\avr-gcc-7.2.0-x64-mingw\avr\include\avr\power.h **** 
1167:c:\avr-gcc-7.2.0-x64-mingw\avr\include\avr\power.h **** #ifdef __AVR_HAVE_PRGEN
1168:c:\avr-gcc-7.2.0-x64-mingw\avr\include\avr\power.h ****     PR_PRGEN &= (uint8_t)~(__AVR_HAVE_PRGEN);
1169:c:\avr-gcc-7.2.0-x64-mingw\avr\include\avr\power.h **** #endif
1170:c:\avr-gcc-7.2.0-x64-mingw\avr\include\avr\power.h **** 
1171:c:\avr-gcc-7.2.0-x64-mingw\avr\include\avr\power.h **** #ifdef __AVR_HAVE_PRPA
1172:c:\avr-gcc-7.2.0-x64-mingw\avr\include\avr\power.h ****     PR_PRPA &= (uint8_t)~(__AVR_HAVE_PRPA);
1173:c:\avr-gcc-7.2.0-x64-mingw\avr\include\avr\power.h **** #endif
1174:c:\avr-gcc-7.2.0-x64-mingw\avr\include\avr\power.h **** 
1175:c:\avr-gcc-7.2.0-x64-mingw\avr\include\avr\power.h **** #ifdef __AVR_HAVE_PRPB
1176:c:\avr-gcc-7.2.0-x64-mingw\avr\include\avr\power.h ****     PR_PRPB &= (uint8_t)~(__AVR_HAVE_PRPB);
1177:c:\avr-gcc-7.2.0-x64-mingw\avr\include\avr\power.h **** #endif
1178:c:\avr-gcc-7.2.0-x64-mingw\avr\include\avr\power.h **** 
1179:c:\avr-gcc-7.2.0-x64-mingw\avr\include\avr\power.h **** #ifdef __AVR_HAVE_PRPC
1180:c:\avr-gcc-7.2.0-x64-mingw\avr\include\avr\power.h ****     PR_PRPC &= (uint8_t)~(__AVR_HAVE_PRPC);
1181:c:\avr-gcc-7.2.0-x64-mingw\avr\include\avr\power.h **** #endif
1182:c:\avr-gcc-7.2.0-x64-mingw\avr\include\avr\power.h **** 
1183:c:\avr-gcc-7.2.0-x64-mingw\avr\include\avr\power.h **** #ifdef __AVR_HAVE_PRPD
1184:c:\avr-gcc-7.2.0-x64-mingw\avr\include\avr\power.h ****     PR_PRPD &= (uint8_t)~(__AVR_HAVE_PRPD);
1185:c:\avr-gcc-7.2.0-x64-mingw\avr\include\avr\power.h **** #endif
1186:c:\avr-gcc-7.2.0-x64-mingw\avr\include\avr\power.h **** 
1187:c:\avr-gcc-7.2.0-x64-mingw\avr\include\avr\power.h **** #ifdef __AVR_HAVE_PRPE
1188:c:\avr-gcc-7.2.0-x64-mingw\avr\include\avr\power.h ****     PR_PRPE &= (uint8_t)~(__AVR_HAVE_PRPE);
1189:c:\avr-gcc-7.2.0-x64-mingw\avr\include\avr\power.h **** #endif
1190:c:\avr-gcc-7.2.0-x64-mingw\avr\include\avr\power.h **** 
1191:c:\avr-gcc-7.2.0-x64-mingw\avr\include\avr\power.h **** #ifdef __AVR_HAVE_PRPF
1192:c:\avr-gcc-7.2.0-x64-mingw\avr\include\avr\power.h ****     PR_PRPF &= (uint8_t)~(__AVR_HAVE_PRPF);
1193:c:\avr-gcc-7.2.0-x64-mingw\avr\include\avr\power.h **** #endif
1194:c:\avr-gcc-7.2.0-x64-mingw\avr\include\avr\power.h **** }
1195:c:\avr-gcc-7.2.0-x64-mingw\avr\include\avr\power.h **** 
1196:c:\avr-gcc-7.2.0-x64-mingw\avr\include\avr\power.h **** static __inline void
1197:c:\avr-gcc-7.2.0-x64-mingw\avr\include\avr\power.h **** __attribute__ ((__always_inline__))
1198:c:\avr-gcc-7.2.0-x64-mingw\avr\include\avr\power.h **** __power_all_disable()
1199:c:\avr-gcc-7.2.0-x64-mingw\avr\include\avr\power.h **** {
1200:c:\avr-gcc-7.2.0-x64-mingw\avr\include\avr\power.h **** #ifdef __AVR_HAVE_PRR
1201:c:\avr-gcc-7.2.0-x64-mingw\avr\include\avr\power.h ****     PRR |= (uint8_t)(__AVR_HAVE_PRR);
1202:c:\avr-gcc-7.2.0-x64-mingw\avr\include\avr\power.h **** #endif
1203:c:\avr-gcc-7.2.0-x64-mingw\avr\include\avr\power.h **** 
1204:c:\avr-gcc-7.2.0-x64-mingw\avr\include\avr\power.h **** #ifdef __AVR_HAVE_PRR0
1205:c:\avr-gcc-7.2.0-x64-mingw\avr\include\avr\power.h ****     PRR0 |= (uint8_t)(__AVR_HAVE_PRR0);
1206:c:\avr-gcc-7.2.0-x64-mingw\avr\include\avr\power.h **** #endif
1207:c:\avr-gcc-7.2.0-x64-mingw\avr\include\avr\power.h **** 
1208:c:\avr-gcc-7.2.0-x64-mingw\avr\include\avr\power.h **** #ifdef __AVR_HAVE_PRR1
1209:c:\avr-gcc-7.2.0-x64-mingw\avr\include\avr\power.h ****     PRR1 |= (uint8_t)(__AVR_HAVE_PRR1);
1210:c:\avr-gcc-7.2.0-x64-mingw\avr\include\avr\power.h **** #endif
1211:c:\avr-gcc-7.2.0-x64-mingw\avr\include\avr\power.h **** 
1212:c:\avr-gcc-7.2.0-x64-mingw\avr\include\avr\power.h **** #ifdef __AVR_HAVE_PRR2
1213:c:\avr-gcc-7.2.0-x64-mingw\avr\include\avr\power.h ****     PRR2 |= (uint8_t)(__AVR_HAVE_PRR2);
1214:c:\avr-gcc-7.2.0-x64-mingw\avr\include\avr\power.h **** #endif
1215:c:\avr-gcc-7.2.0-x64-mingw\avr\include\avr\power.h **** 
1216:c:\avr-gcc-7.2.0-x64-mingw\avr\include\avr\power.h **** #ifdef __AVR_HAVE_PRGEN
1217:c:\avr-gcc-7.2.0-x64-mingw\avr\include\avr\power.h ****     PR_PRGEN |= (uint8_t)(__AVR_HAVE_PRGEN);
1218:c:\avr-gcc-7.2.0-x64-mingw\avr\include\avr\power.h **** #endif
1219:c:\avr-gcc-7.2.0-x64-mingw\avr\include\avr\power.h **** 
1220:c:\avr-gcc-7.2.0-x64-mingw\avr\include\avr\power.h **** #ifdef __AVR_HAVE_PRPA
1221:c:\avr-gcc-7.2.0-x64-mingw\avr\include\avr\power.h ****     PR_PRPA |= (uint8_t)(__AVR_HAVE_PRPA);
1222:c:\avr-gcc-7.2.0-x64-mingw\avr\include\avr\power.h **** #endif
1223:c:\avr-gcc-7.2.0-x64-mingw\avr\include\avr\power.h **** 
1224:c:\avr-gcc-7.2.0-x64-mingw\avr\include\avr\power.h **** #ifdef __AVR_HAVE_PRPB
1225:c:\avr-gcc-7.2.0-x64-mingw\avr\include\avr\power.h ****     PR_PRPB |= (uint8_t)(__AVR_HAVE_PRPB);
1226:c:\avr-gcc-7.2.0-x64-mingw\avr\include\avr\power.h **** #endif
1227:c:\avr-gcc-7.2.0-x64-mingw\avr\include\avr\power.h **** 
1228:c:\avr-gcc-7.2.0-x64-mingw\avr\include\avr\power.h **** #ifdef __AVR_HAVE_PRPC
1229:c:\avr-gcc-7.2.0-x64-mingw\avr\include\avr\power.h ****     PR_PRPC |= (uint8_t)(__AVR_HAVE_PRPC);
1230:c:\avr-gcc-7.2.0-x64-mingw\avr\include\avr\power.h **** #endif
1231:c:\avr-gcc-7.2.0-x64-mingw\avr\include\avr\power.h **** 
1232:c:\avr-gcc-7.2.0-x64-mingw\avr\include\avr\power.h **** #ifdef __AVR_HAVE_PRPD
1233:c:\avr-gcc-7.2.0-x64-mingw\avr\include\avr\power.h ****     PR_PRPD |= (uint8_t)(__AVR_HAVE_PRPD);
1234:c:\avr-gcc-7.2.0-x64-mingw\avr\include\avr\power.h **** #endif
1235:c:\avr-gcc-7.2.0-x64-mingw\avr\include\avr\power.h **** 
1236:c:\avr-gcc-7.2.0-x64-mingw\avr\include\avr\power.h **** #ifdef __AVR_HAVE_PRPE
1237:c:\avr-gcc-7.2.0-x64-mingw\avr\include\avr\power.h ****     PR_PRPE |= (uint8_t)(__AVR_HAVE_PRPE);
1238:c:\avr-gcc-7.2.0-x64-mingw\avr\include\avr\power.h **** #endif
1239:c:\avr-gcc-7.2.0-x64-mingw\avr\include\avr\power.h **** 
1240:c:\avr-gcc-7.2.0-x64-mingw\avr\include\avr\power.h **** #ifdef __AVR_HAVE_PRPF
1241:c:\avr-gcc-7.2.0-x64-mingw\avr\include\avr\power.h ****     PR_PRPF |= (uint8_t)(__AVR_HAVE_PRPF);
1242:c:\avr-gcc-7.2.0-x64-mingw\avr\include\avr\power.h **** #endif
1243:c:\avr-gcc-7.2.0-x64-mingw\avr\include\avr\power.h **** }
1244:c:\avr-gcc-7.2.0-x64-mingw\avr\include\avr\power.h **** 
1245:c:\avr-gcc-7.2.0-x64-mingw\avr\include\avr\power.h **** #ifndef __DOXYGEN__
1246:c:\avr-gcc-7.2.0-x64-mingw\avr\include\avr\power.h **** #ifndef power_all_enable
1247:c:\avr-gcc-7.2.0-x64-mingw\avr\include\avr\power.h **** #define power_all_enable() __power_all_enable()
1248:c:\avr-gcc-7.2.0-x64-mingw\avr\include\avr\power.h **** #endif
1249:c:\avr-gcc-7.2.0-x64-mingw\avr\include\avr\power.h **** 
1250:c:\avr-gcc-7.2.0-x64-mingw\avr\include\avr\power.h **** #ifndef power_all_disable
1251:c:\avr-gcc-7.2.0-x64-mingw\avr\include\avr\power.h **** #define power_all_disable() __power_all_disable()
1252:c:\avr-gcc-7.2.0-x64-mingw\avr\include\avr\power.h **** #endif
1253:c:\avr-gcc-7.2.0-x64-mingw\avr\include\avr\power.h **** #endif	/* !__DOXYGEN__ */
1254:c:\avr-gcc-7.2.0-x64-mingw\avr\include\avr\power.h **** 
1255:c:\avr-gcc-7.2.0-x64-mingw\avr\include\avr\power.h **** 
1256:c:\avr-gcc-7.2.0-x64-mingw\avr\include\avr\power.h **** #if defined(__AVR_AT90CAN32__) \
1257:c:\avr-gcc-7.2.0-x64-mingw\avr\include\avr\power.h **** || defined(__AVR_AT90CAN64__) \
1258:c:\avr-gcc-7.2.0-x64-mingw\avr\include\avr\power.h **** || defined(__AVR_AT90CAN128__) \
1259:c:\avr-gcc-7.2.0-x64-mingw\avr\include\avr\power.h **** || defined(__AVR_AT90PWM1__) \
1260:c:\avr-gcc-7.2.0-x64-mingw\avr\include\avr\power.h **** || defined(__AVR_AT90PWM2__) \
1261:c:\avr-gcc-7.2.0-x64-mingw\avr\include\avr\power.h **** || defined(__AVR_AT90PWM2B__) \
1262:c:\avr-gcc-7.2.0-x64-mingw\avr\include\avr\power.h **** || defined(__AVR_AT90PWM3__) \
1263:c:\avr-gcc-7.2.0-x64-mingw\avr\include\avr\power.h **** || defined(__AVR_AT90PWM3B__) \
1264:c:\avr-gcc-7.2.0-x64-mingw\avr\include\avr\power.h **** || defined(__AVR_AT90PWM81__) \
1265:c:\avr-gcc-7.2.0-x64-mingw\avr\include\avr\power.h **** || defined(__AVR_AT90PWM161__) \
1266:c:\avr-gcc-7.2.0-x64-mingw\avr\include\avr\power.h **** || defined(__AVR_AT90PWM216__) \
1267:c:\avr-gcc-7.2.0-x64-mingw\avr\include\avr\power.h **** || defined(__AVR_AT90PWM316__) \
1268:c:\avr-gcc-7.2.0-x64-mingw\avr\include\avr\power.h **** || defined(__AVR_AT90SCR100__) \
1269:c:\avr-gcc-7.2.0-x64-mingw\avr\include\avr\power.h **** || defined(__AVR_AT90USB646__) \
1270:c:\avr-gcc-7.2.0-x64-mingw\avr\include\avr\power.h **** || defined(__AVR_AT90USB647__) \
1271:c:\avr-gcc-7.2.0-x64-mingw\avr\include\avr\power.h **** || defined(__AVR_AT90USB82__) \
1272:c:\avr-gcc-7.2.0-x64-mingw\avr\include\avr\power.h **** || defined(__AVR_AT90USB1286__) \
1273:c:\avr-gcc-7.2.0-x64-mingw\avr\include\avr\power.h **** || defined(__AVR_AT90USB1287__) \
1274:c:\avr-gcc-7.2.0-x64-mingw\avr\include\avr\power.h **** || defined(__AVR_AT90USB162__) \
1275:c:\avr-gcc-7.2.0-x64-mingw\avr\include\avr\power.h **** || defined(__AVR_ATA5505__) \
1276:c:\avr-gcc-7.2.0-x64-mingw\avr\include\avr\power.h **** || defined(__AVR_ATA5272__) \
1277:c:\avr-gcc-7.2.0-x64-mingw\avr\include\avr\power.h **** || defined(__AVR_ATmega1280__) \
1278:c:\avr-gcc-7.2.0-x64-mingw\avr\include\avr\power.h **** || defined(__AVR_ATmega1281__) \
1279:c:\avr-gcc-7.2.0-x64-mingw\avr\include\avr\power.h **** || defined(__AVR_ATmega1284__) \
1280:c:\avr-gcc-7.2.0-x64-mingw\avr\include\avr\power.h **** || defined(__AVR_ATmega128RFA1__) \
1281:c:\avr-gcc-7.2.0-x64-mingw\avr\include\avr\power.h **** || defined(__AVR_ATmega1284RFR2__) \
1282:c:\avr-gcc-7.2.0-x64-mingw\avr\include\avr\power.h **** || defined(__AVR_ATmega128RFR2__) \
1283:c:\avr-gcc-7.2.0-x64-mingw\avr\include\avr\power.h **** || defined(__AVR_ATmega1284P__) \
1284:c:\avr-gcc-7.2.0-x64-mingw\avr\include\avr\power.h **** || defined(__AVR_ATmega162__) \
1285:c:\avr-gcc-7.2.0-x64-mingw\avr\include\avr\power.h **** || defined(__AVR_ATmega164A__) \
1286:c:\avr-gcc-7.2.0-x64-mingw\avr\include\avr\power.h **** || defined(__AVR_ATmega164P__) \
1287:c:\avr-gcc-7.2.0-x64-mingw\avr\include\avr\power.h **** || defined(__AVR_ATmega164PA__) \
1288:c:\avr-gcc-7.2.0-x64-mingw\avr\include\avr\power.h **** || defined(__AVR_ATmega165__) \
1289:c:\avr-gcc-7.2.0-x64-mingw\avr\include\avr\power.h **** || defined(__AVR_ATmega165A__) \
1290:c:\avr-gcc-7.2.0-x64-mingw\avr\include\avr\power.h **** || defined(__AVR_ATmega165P__) \
1291:c:\avr-gcc-7.2.0-x64-mingw\avr\include\avr\power.h **** || defined(__AVR_ATmega165PA__) \
1292:c:\avr-gcc-7.2.0-x64-mingw\avr\include\avr\power.h **** || defined(__AVR_ATmega168__) \
1293:c:\avr-gcc-7.2.0-x64-mingw\avr\include\avr\power.h **** || defined(__AVR_ATmega168P__) \
1294:c:\avr-gcc-7.2.0-x64-mingw\avr\include\avr\power.h **** || defined(__AVR_ATmega168PA__) \
1295:c:\avr-gcc-7.2.0-x64-mingw\avr\include\avr\power.h **** || defined(__AVR_ATmega169__) \
1296:c:\avr-gcc-7.2.0-x64-mingw\avr\include\avr\power.h **** || defined(__AVR_ATmega169A__) \
1297:c:\avr-gcc-7.2.0-x64-mingw\avr\include\avr\power.h **** || defined(__AVR_ATmega169P__) \
1298:c:\avr-gcc-7.2.0-x64-mingw\avr\include\avr\power.h **** || defined(__AVR_ATmega169PA__) \
1299:c:\avr-gcc-7.2.0-x64-mingw\avr\include\avr\power.h **** || defined(__AVR_ATmega16U4__) \
1300:c:\avr-gcc-7.2.0-x64-mingw\avr\include\avr\power.h **** || defined(__AVR_ATmega2560__) \
1301:c:\avr-gcc-7.2.0-x64-mingw\avr\include\avr\power.h **** || defined(__AVR_ATmega2561__) \
1302:c:\avr-gcc-7.2.0-x64-mingw\avr\include\avr\power.h **** || defined(__AVR_ATmega2564RFR2__) \
1303:c:\avr-gcc-7.2.0-x64-mingw\avr\include\avr\power.h **** || defined(__AVR_ATmega256RFR2__) \
1304:c:\avr-gcc-7.2.0-x64-mingw\avr\include\avr\power.h **** || defined(__AVR_ATmega324A__) \
1305:c:\avr-gcc-7.2.0-x64-mingw\avr\include\avr\power.h **** || defined(__AVR_ATmega324P__) \
1306:c:\avr-gcc-7.2.0-x64-mingw\avr\include\avr\power.h **** || defined(__AVR_ATmega325__) \
1307:c:\avr-gcc-7.2.0-x64-mingw\avr\include\avr\power.h **** || defined(__AVR_ATmega325A__) \
1308:c:\avr-gcc-7.2.0-x64-mingw\avr\include\avr\power.h **** || defined(__AVR_ATmega325PA__) \
1309:c:\avr-gcc-7.2.0-x64-mingw\avr\include\avr\power.h **** || defined(__AVR_ATmega3250__) \
1310:c:\avr-gcc-7.2.0-x64-mingw\avr\include\avr\power.h **** || defined(__AVR_ATmega3250A__) \
1311:c:\avr-gcc-7.2.0-x64-mingw\avr\include\avr\power.h **** || defined(__AVR_ATmega3250PA__) \
1312:c:\avr-gcc-7.2.0-x64-mingw\avr\include\avr\power.h **** || defined(__AVR_ATmega328__) \
1313:c:\avr-gcc-7.2.0-x64-mingw\avr\include\avr\power.h **** || defined(__AVR_ATmega328P__) \
1314:c:\avr-gcc-7.2.0-x64-mingw\avr\include\avr\power.h **** || defined(__AVR_ATmega329__) \
1315:c:\avr-gcc-7.2.0-x64-mingw\avr\include\avr\power.h **** || defined(__AVR_ATmega329A__) \
1316:c:\avr-gcc-7.2.0-x64-mingw\avr\include\avr\power.h **** || defined(__AVR_ATmega329P__) \
1317:c:\avr-gcc-7.2.0-x64-mingw\avr\include\avr\power.h **** || defined(__AVR_ATmega329PA__) \
1318:c:\avr-gcc-7.2.0-x64-mingw\avr\include\avr\power.h **** || defined(__AVR_ATmega3290__) \
1319:c:\avr-gcc-7.2.0-x64-mingw\avr\include\avr\power.h **** || defined(__AVR_ATmega3290A__) \
1320:c:\avr-gcc-7.2.0-x64-mingw\avr\include\avr\power.h **** || defined(__AVR_ATmega3290PA__) \
1321:c:\avr-gcc-7.2.0-x64-mingw\avr\include\avr\power.h **** || defined(__AVR_ATmega32C1__) \
1322:c:\avr-gcc-7.2.0-x64-mingw\avr\include\avr\power.h **** || defined(__AVR_ATmega32M1__) \
1323:c:\avr-gcc-7.2.0-x64-mingw\avr\include\avr\power.h **** || defined(__AVR_ATmega32U2__) \
1324:c:\avr-gcc-7.2.0-x64-mingw\avr\include\avr\power.h **** || defined(__AVR_ATmega32U4__) \
1325:c:\avr-gcc-7.2.0-x64-mingw\avr\include\avr\power.h **** || defined(__AVR_ATmega32U6__) \
1326:c:\avr-gcc-7.2.0-x64-mingw\avr\include\avr\power.h **** || defined(__AVR_ATmega48__) \
1327:c:\avr-gcc-7.2.0-x64-mingw\avr\include\avr\power.h **** || defined(__AVR_ATmega48A__) \
1328:c:\avr-gcc-7.2.0-x64-mingw\avr\include\avr\power.h **** || defined(__AVR_ATmega48PA__) \
1329:c:\avr-gcc-7.2.0-x64-mingw\avr\include\avr\power.h **** || defined(__AVR_ATmega48P__) \
1330:c:\avr-gcc-7.2.0-x64-mingw\avr\include\avr\power.h **** || defined(__AVR_ATmega640__) \
1331:c:\avr-gcc-7.2.0-x64-mingw\avr\include\avr\power.h **** || defined(__AVR_ATmega649P__) \
1332:c:\avr-gcc-7.2.0-x64-mingw\avr\include\avr\power.h **** || defined(__AVR_ATmega644__) \
1333:c:\avr-gcc-7.2.0-x64-mingw\avr\include\avr\power.h **** || defined(__AVR_ATmega644A__) \
1334:c:\avr-gcc-7.2.0-x64-mingw\avr\include\avr\power.h **** || defined(__AVR_ATmega644P__) \
1335:c:\avr-gcc-7.2.0-x64-mingw\avr\include\avr\power.h **** || defined(__AVR_ATmega644PA__) \
1336:c:\avr-gcc-7.2.0-x64-mingw\avr\include\avr\power.h **** || defined(__AVR_ATmega645__) \
1337:c:\avr-gcc-7.2.0-x64-mingw\avr\include\avr\power.h **** || defined(__AVR_ATmega645A__) \
1338:c:\avr-gcc-7.2.0-x64-mingw\avr\include\avr\power.h **** || defined(__AVR_ATmega645P__) \
1339:c:\avr-gcc-7.2.0-x64-mingw\avr\include\avr\power.h **** || defined(__AVR_ATmega6450__) \
1340:c:\avr-gcc-7.2.0-x64-mingw\avr\include\avr\power.h **** || defined(__AVR_ATmega6450A__) \
1341:c:\avr-gcc-7.2.0-x64-mingw\avr\include\avr\power.h **** || defined(__AVR_ATmega6450P__) \
1342:c:\avr-gcc-7.2.0-x64-mingw\avr\include\avr\power.h **** || defined(__AVR_ATmega649__) \
1343:c:\avr-gcc-7.2.0-x64-mingw\avr\include\avr\power.h **** || defined(__AVR_ATmega649A__) \
1344:c:\avr-gcc-7.2.0-x64-mingw\avr\include\avr\power.h **** || defined(__AVR_ATmega6490__) \
1345:c:\avr-gcc-7.2.0-x64-mingw\avr\include\avr\power.h **** || defined(__AVR_ATmega6490A__) \
1346:c:\avr-gcc-7.2.0-x64-mingw\avr\include\avr\power.h **** || defined(__AVR_ATmega6490P__) \
1347:c:\avr-gcc-7.2.0-x64-mingw\avr\include\avr\power.h **** || defined(__AVR_ATmega644RFR2__) \
1348:c:\avr-gcc-7.2.0-x64-mingw\avr\include\avr\power.h **** || defined(__AVR_ATmega64RFR2__) \
1349:c:\avr-gcc-7.2.0-x64-mingw\avr\include\avr\power.h **** || defined(__AVR_ATmega88__) \
1350:c:\avr-gcc-7.2.0-x64-mingw\avr\include\avr\power.h **** || defined(__AVR_ATmega88P__) \
1351:c:\avr-gcc-7.2.0-x64-mingw\avr\include\avr\power.h **** || defined(__AVR_ATmega8U2__) \
1352:c:\avr-gcc-7.2.0-x64-mingw\avr\include\avr\power.h **** || defined(__AVR_ATmega16U2__) \
1353:c:\avr-gcc-7.2.0-x64-mingw\avr\include\avr\power.h **** || defined(__AVR_ATmega32U2__) \
1354:c:\avr-gcc-7.2.0-x64-mingw\avr\include\avr\power.h **** || defined(__AVR_ATtiny48__) \
1355:c:\avr-gcc-7.2.0-x64-mingw\avr\include\avr\power.h **** || defined(__AVR_ATtiny167__) \
1356:c:\avr-gcc-7.2.0-x64-mingw\avr\include\avr\power.h **** || defined(__DOXYGEN__)
1357:c:\avr-gcc-7.2.0-x64-mingw\avr\include\avr\power.h **** 
1358:c:\avr-gcc-7.2.0-x64-mingw\avr\include\avr\power.h **** 
1359:c:\avr-gcc-7.2.0-x64-mingw\avr\include\avr\power.h **** /** \addtogroup avr_power
1360:c:\avr-gcc-7.2.0-x64-mingw\avr\include\avr\power.h **** 
1361:c:\avr-gcc-7.2.0-x64-mingw\avr\include\avr\power.h **** Some of the newer AVRs contain a System Clock Prescale Register (CLKPR) that
1362:c:\avr-gcc-7.2.0-x64-mingw\avr\include\avr\power.h **** allows you to decrease the system clock frequency and the power consumption
1363:c:\avr-gcc-7.2.0-x64-mingw\avr\include\avr\power.h **** when the need for processing power is low.
1364:c:\avr-gcc-7.2.0-x64-mingw\avr\include\avr\power.h **** On some earlier AVRs (ATmega103, ATmega64, ATmega128), similar
1365:c:\avr-gcc-7.2.0-x64-mingw\avr\include\avr\power.h **** functionality can be achieved through the XTAL Divide Control Register.
1366:c:\avr-gcc-7.2.0-x64-mingw\avr\include\avr\power.h **** Below are two macros and an enumerated type that can be used to
1367:c:\avr-gcc-7.2.0-x64-mingw\avr\include\avr\power.h **** interface to the Clock Prescale Register or
1368:c:\avr-gcc-7.2.0-x64-mingw\avr\include\avr\power.h **** XTAL Divide Control Register.
1369:c:\avr-gcc-7.2.0-x64-mingw\avr\include\avr\power.h **** 
1370:c:\avr-gcc-7.2.0-x64-mingw\avr\include\avr\power.h **** \note Not all AVR devices have a clock prescaler. On those devices
1371:c:\avr-gcc-7.2.0-x64-mingw\avr\include\avr\power.h **** without a Clock Prescale Register or XTAL Divide Control Register, these
1372:c:\avr-gcc-7.2.0-x64-mingw\avr\include\avr\power.h **** macros are not available.
1373:c:\avr-gcc-7.2.0-x64-mingw\avr\include\avr\power.h **** */
1374:c:\avr-gcc-7.2.0-x64-mingw\avr\include\avr\power.h **** 
1375:c:\avr-gcc-7.2.0-x64-mingw\avr\include\avr\power.h **** 
1376:c:\avr-gcc-7.2.0-x64-mingw\avr\include\avr\power.h **** /** \addtogroup avr_power
1377:c:\avr-gcc-7.2.0-x64-mingw\avr\include\avr\power.h **** \code 
1378:c:\avr-gcc-7.2.0-x64-mingw\avr\include\avr\power.h **** typedef enum
1379:c:\avr-gcc-7.2.0-x64-mingw\avr\include\avr\power.h **** {
1380:c:\avr-gcc-7.2.0-x64-mingw\avr\include\avr\power.h ****     clock_div_1 = 0,
1381:c:\avr-gcc-7.2.0-x64-mingw\avr\include\avr\power.h ****     clock_div_2 = 1,
1382:c:\avr-gcc-7.2.0-x64-mingw\avr\include\avr\power.h ****     clock_div_4 = 2,
1383:c:\avr-gcc-7.2.0-x64-mingw\avr\include\avr\power.h ****     clock_div_8 = 3,
1384:c:\avr-gcc-7.2.0-x64-mingw\avr\include\avr\power.h ****     clock_div_16 = 4,
1385:c:\avr-gcc-7.2.0-x64-mingw\avr\include\avr\power.h ****     clock_div_32 = 5,
1386:c:\avr-gcc-7.2.0-x64-mingw\avr\include\avr\power.h ****     clock_div_64 = 6,
1387:c:\avr-gcc-7.2.0-x64-mingw\avr\include\avr\power.h ****     clock_div_128 = 7,
1388:c:\avr-gcc-7.2.0-x64-mingw\avr\include\avr\power.h ****     clock_div_256 = 8,
1389:c:\avr-gcc-7.2.0-x64-mingw\avr\include\avr\power.h ****     clock_div_1_rc = 15, // ATmega128RFA1 only
1390:c:\avr-gcc-7.2.0-x64-mingw\avr\include\avr\power.h **** } clock_div_t;
1391:c:\avr-gcc-7.2.0-x64-mingw\avr\include\avr\power.h **** \endcode
1392:c:\avr-gcc-7.2.0-x64-mingw\avr\include\avr\power.h **** Clock prescaler setting enumerations for device using
1393:c:\avr-gcc-7.2.0-x64-mingw\avr\include\avr\power.h **** System Clock Prescale Register.
1394:c:\avr-gcc-7.2.0-x64-mingw\avr\include\avr\power.h **** 
1395:c:\avr-gcc-7.2.0-x64-mingw\avr\include\avr\power.h **** \code
1396:c:\avr-gcc-7.2.0-x64-mingw\avr\include\avr\power.h **** typedef enum
1397:c:\avr-gcc-7.2.0-x64-mingw\avr\include\avr\power.h **** {
1398:c:\avr-gcc-7.2.0-x64-mingw\avr\include\avr\power.h ****     clock_div_1 = 1,
1399:c:\avr-gcc-7.2.0-x64-mingw\avr\include\avr\power.h ****     clock_div_2 = 2,
1400:c:\avr-gcc-7.2.0-x64-mingw\avr\include\avr\power.h ****     clock_div_4 = 4,
1401:c:\avr-gcc-7.2.0-x64-mingw\avr\include\avr\power.h ****     clock_div_8 = 8,
1402:c:\avr-gcc-7.2.0-x64-mingw\avr\include\avr\power.h ****     clock_div_16 = 16,
1403:c:\avr-gcc-7.2.0-x64-mingw\avr\include\avr\power.h ****     clock_div_32 = 32,
1404:c:\avr-gcc-7.2.0-x64-mingw\avr\include\avr\power.h ****     clock_div_64 = 64,
1405:c:\avr-gcc-7.2.0-x64-mingw\avr\include\avr\power.h ****     clock_div_128 = 128
1406:c:\avr-gcc-7.2.0-x64-mingw\avr\include\avr\power.h **** } clock_div_t;
1407:c:\avr-gcc-7.2.0-x64-mingw\avr\include\avr\power.h **** \endcode
1408:c:\avr-gcc-7.2.0-x64-mingw\avr\include\avr\power.h **** Clock prescaler setting enumerations for device using
1409:c:\avr-gcc-7.2.0-x64-mingw\avr\include\avr\power.h **** XTAL Divide Control Register.
1410:c:\avr-gcc-7.2.0-x64-mingw\avr\include\avr\power.h **** 
1411:c:\avr-gcc-7.2.0-x64-mingw\avr\include\avr\power.h **** */
1412:c:\avr-gcc-7.2.0-x64-mingw\avr\include\avr\power.h **** #ifndef __DOXYGEN__
1413:c:\avr-gcc-7.2.0-x64-mingw\avr\include\avr\power.h **** typedef enum
1414:c:\avr-gcc-7.2.0-x64-mingw\avr\include\avr\power.h **** {
1415:c:\avr-gcc-7.2.0-x64-mingw\avr\include\avr\power.h ****     clock_div_1 = 0,
1416:c:\avr-gcc-7.2.0-x64-mingw\avr\include\avr\power.h ****     clock_div_2 = 1,
1417:c:\avr-gcc-7.2.0-x64-mingw\avr\include\avr\power.h ****     clock_div_4 = 2,
1418:c:\avr-gcc-7.2.0-x64-mingw\avr\include\avr\power.h ****     clock_div_8 = 3,
1419:c:\avr-gcc-7.2.0-x64-mingw\avr\include\avr\power.h ****     clock_div_16 = 4,
1420:c:\avr-gcc-7.2.0-x64-mingw\avr\include\avr\power.h ****     clock_div_32 = 5,
1421:c:\avr-gcc-7.2.0-x64-mingw\avr\include\avr\power.h ****     clock_div_64 = 6,
1422:c:\avr-gcc-7.2.0-x64-mingw\avr\include\avr\power.h ****     clock_div_128 = 7,
1423:c:\avr-gcc-7.2.0-x64-mingw\avr\include\avr\power.h ****     clock_div_256 = 8
1424:c:\avr-gcc-7.2.0-x64-mingw\avr\include\avr\power.h **** #if defined(__AVR_ATmega128RFA1__) \
1425:c:\avr-gcc-7.2.0-x64-mingw\avr\include\avr\power.h **** || defined(__AVR_ATmega2564RFR2__) \
1426:c:\avr-gcc-7.2.0-x64-mingw\avr\include\avr\power.h **** || defined(__AVR_ATmega1284RFR2__) \
1427:c:\avr-gcc-7.2.0-x64-mingw\avr\include\avr\power.h **** || defined(__AVR_ATmega644RFR2__) \
1428:c:\avr-gcc-7.2.0-x64-mingw\avr\include\avr\power.h **** || defined(__AVR_ATmega256RFR2__) \
1429:c:\avr-gcc-7.2.0-x64-mingw\avr\include\avr\power.h **** || defined(__AVR_ATmega128RFR2__) \
1430:c:\avr-gcc-7.2.0-x64-mingw\avr\include\avr\power.h **** || defined(__AVR_ATmega64RFR2__)
1431:c:\avr-gcc-7.2.0-x64-mingw\avr\include\avr\power.h ****     , clock_div_1_rc = 15
1432:c:\avr-gcc-7.2.0-x64-mingw\avr\include\avr\power.h **** #endif
1433:c:\avr-gcc-7.2.0-x64-mingw\avr\include\avr\power.h **** } clock_div_t;
1434:c:\avr-gcc-7.2.0-x64-mingw\avr\include\avr\power.h **** 
1435:c:\avr-gcc-7.2.0-x64-mingw\avr\include\avr\power.h **** static __inline__ void clock_prescale_set(clock_div_t) __attribute__((__always_inline__));
1436:c:\avr-gcc-7.2.0-x64-mingw\avr\include\avr\power.h **** #endif	/* !__DOXYGEN__ */
1437:c:\avr-gcc-7.2.0-x64-mingw\avr\include\avr\power.h **** 
1438:c:\avr-gcc-7.2.0-x64-mingw\avr\include\avr\power.h **** /**
1439:c:\avr-gcc-7.2.0-x64-mingw\avr\include\avr\power.h ****    \ingroup avr_power
1440:c:\avr-gcc-7.2.0-x64-mingw\avr\include\avr\power.h ****    \fn clock_prescale_set(clock_div_t x)
1441:c:\avr-gcc-7.2.0-x64-mingw\avr\include\avr\power.h **** 
1442:c:\avr-gcc-7.2.0-x64-mingw\avr\include\avr\power.h **** Set the clock prescaler register select bits, selecting a system clock
1443:c:\avr-gcc-7.2.0-x64-mingw\avr\include\avr\power.h **** division setting. This function is inlined, even if compiler
1444:c:\avr-gcc-7.2.0-x64-mingw\avr\include\avr\power.h **** optimizations are disabled.
1445:c:\avr-gcc-7.2.0-x64-mingw\avr\include\avr\power.h **** 
1446:c:\avr-gcc-7.2.0-x64-mingw\avr\include\avr\power.h **** The type of \c x is \c clock_div_t.
1447:c:\avr-gcc-7.2.0-x64-mingw\avr\include\avr\power.h **** 
1448:c:\avr-gcc-7.2.0-x64-mingw\avr\include\avr\power.h **** \note For device with XTAL Divide Control Register (XDIV), \c x can actually range
1449:c:\avr-gcc-7.2.0-x64-mingw\avr\include\avr\power.h **** from 1 to 129. Thus, one does not need to use \c clock_div_t type as argument.
1450:c:\avr-gcc-7.2.0-x64-mingw\avr\include\avr\power.h **** */
1451:c:\avr-gcc-7.2.0-x64-mingw\avr\include\avr\power.h **** void clock_prescale_set(clock_div_t __x)
1452:c:\avr-gcc-7.2.0-x64-mingw\avr\include\avr\power.h **** {
1453:c:\avr-gcc-7.2.0-x64-mingw\avr\include\avr\power.h ****     uint8_t __tmp = _BV(CLKPCE);
1454:c:\avr-gcc-7.2.0-x64-mingw\avr\include\avr\power.h ****     __asm__ __volatile__ (
 1415               		.loc 6 1454 0
 1416 001c 80E8      		ldi r24,lo8(-128)
 1417 001e 90E0      		ldi r25,0
 1418               	/* #APP */
 1419               	 ;  1454 "c:\avr-gcc-7.2.0-x64-mingw\avr\include\avr\power.h" 1
 1420 0020 0FB6      		in __tmp_reg__,__SREG__
 1421 0022 F894      		cli
 1422 0024 8093 6100 		sts 97, r24
 1423 0028 9093 6100 		sts 97, r25
 1424 002c 0FBE      		out __SREG__, __tmp_reg__
 1425               	 ;  0 "" 2
 1426               	.LVL107:
 1427               	/* #NOAPP */
 1428               	.LBE352:
 1429               	.LBE351:
 1430               	.LBE348:
 1431               	.LBE347:
 634:../../tmk_core/protocol/lufa/lufa.c ****     print("\r\ninit\n");
 1432               		.loc 1 634 0
 1433 002e 80E0      		ldi r24,lo8(gs(sendchar))
 1434 0030 90E0      		ldi r25,hi8(gs(sendchar))
 1435 0032 0E94 0000 		call print_set_sendchar
 1436               	.LVL108:
 635:../../tmk_core/protocol/lufa/lufa.c **** 
 1437               		.loc 1 635 0
 1438 0036 80E0      		ldi r24,lo8(__c.4921)
 1439 0038 90E0      		ldi r25,hi8(__c.4921)
 1440 003a 0E94 0000 		call xputs
 1441               	.LVL109:
 637:../../tmk_core/protocol/lufa/lufa.c ****     keyboard_setup();
 1442               		.loc 1 637 0
 1443 003e 0E94 0000 		call hook_early_init
 1444               	.LVL110:
 638:../../tmk_core/protocol/lufa/lufa.c ****     setup_usb();
 1445               		.loc 1 638 0
 1446 0042 0E94 0000 		call keyboard_setup
 1447               	.LVL111:
 1448               	.LBB353:
 1449               	.LBB354:
 617:../../tmk_core/protocol/lufa/lufa.c **** 
 1450               		.loc 1 617 0
 1451 0046 0E94 0000 		call USB_Disable
 1452               	.LVL112:
 619:../../tmk_core/protocol/lufa/lufa.c **** 
 1453               		.loc 1 619 0
 1454 004a 0E94 0000 		call USB_Init
 1455               	.LVL113:
 1456               	.LBB355:
 1457               	.LBB356:
 1458               	.LBB357:
 1459               		.loc 4 113 0
 1460 004e 8091 E200 		lds r24,226
 1461 0052 8460      		ori r24,lo8(4)
 1462 0054 8093 E200 		sts 226,r24
 1463               	.LVL114:
 1464               	.LBE357:
 1465               	.LBE356:
 1466               	.LBE355:
 1467               	.LBE354:
 1468               	.LBE353:
 640:../../tmk_core/protocol/lufa/lufa.c **** 
 1469               		.loc 1 640 0
 1470               	/* #APP */
 1471               	 ;  640 "../../tmk_core/protocol/lufa/lufa.c" 1
 1472 0058 7894      		sei
 1473               	 ;  0 "" 2
 1474               	/* #NOAPP */
 1475               	.L144:
 643:../../tmk_core/protocol/lufa/lufa.c **** #if defined(INTERRUPT_CONTROL_ENDPOINT)
 1476               		.loc 1 643 0 discriminator 1
 1477 005a 8091 0000 		lds r24,USB_DeviceState
 1478 005e 8430      		cpi r24,lo8(4)
 1479 0060 01F4      		brne .L144
 650:../../tmk_core/protocol/lufa/lufa.c **** 
 1480               		.loc 1 650 0
 1481 0062 80E0      		ldi r24,lo8(__c.4926)
 1482 0064 90E0      		ldi r25,hi8(__c.4926)
 1483 0066 0E94 0000 		call xputs
 1484               	.LVL115:
 653:../../tmk_core/protocol/lufa/lufa.c ****     host_set_driver(&lufa_driver);
 1485               		.loc 1 653 0
 1486 006a 0E94 0000 		call keyboard_init
 1487               	.LVL116:
 654:../../tmk_core/protocol/lufa/lufa.c **** #ifdef SLEEP_LED_ENABLE
 1488               		.loc 1 654 0
 1489 006e 80E0      		ldi r24,lo8(lufa_driver)
 1490 0070 90E0      		ldi r25,hi8(lufa_driver)
 1491 0072 0E94 0000 		call host_set_driver
 1492               	.LVL117:
 659:../../tmk_core/protocol/lufa/lufa.c ****     hook_late_init();
 1493               		.loc 1 659 0
 1494 0076 80E0      		ldi r24,lo8(__c.4928)
 1495 0078 90E0      		ldi r25,hi8(__c.4928)
 1496 007a 0E94 0000 		call xputs
 1497               	.LVL118:
 660:../../tmk_core/protocol/lufa/lufa.c ****     while (1) {
 1498               		.loc 1 660 0
 1499 007e 0E94 0000 		call hook_late_init
 1500               	.LVL119:
 1501               	.L145:
 662:../../tmk_core/protocol/lufa/lufa.c **** #ifdef LUFA_DEBUG
 1502               		.loc 1 662 0
 1503 0082 8091 0000 		lds r24,USB_DeviceState
 1504 0086 8530      		cpi r24,lo8(5)
 1505 0088 01F0      		breq .L146
 669:../../tmk_core/protocol/lufa/lufa.c **** 
 1506               		.loc 1 669 0
 1507 008a 0E94 0000 		call keyboard_task
 1508               	.LVL120:
 662:../../tmk_core/protocol/lufa/lufa.c **** #ifdef LUFA_DEBUG
 1509               		.loc 1 662 0
 1510 008e 00C0      		rjmp .L145
 1511               	.L146:
 666:../../tmk_core/protocol/lufa/lufa.c ****         }
 1512               		.loc 1 666 0
 1513 0090 0E94 0000 		call hook_usb_suspend_loop
 1514               	.LVL121:
 1515 0094 00C0      		rjmp .L145
 1516               		.cfi_endproc
 1517               	.LFE125:
 1519               		.section	.text.hook_usb_wakeup,"ax",@progbits
 1520               		.weak	hook_usb_wakeup
 1522               	hook_usb_wakeup:
 1523               	.LFB130:
 711:../../tmk_core/protocol/lufa/lufa.c **** 
 712:../../tmk_core/protocol/lufa/lufa.c **** __attribute__((weak))
 713:../../tmk_core/protocol/lufa/lufa.c **** void hook_usb_wakeup(void)
 714:../../tmk_core/protocol/lufa/lufa.c **** {
 1524               		.loc 1 714 0
 1525               		.cfi_startproc
 1526               	/* prologue: function */
 1527               	/* frame size = 0 */
 1528               	/* stack size = 0 */
 1529               	.L__stack_usage = 0
 715:../../tmk_core/protocol/lufa/lufa.c ****     suspend_wakeup_init();
 1530               		.loc 1 715 0
 1531 0000 0E94 0000 		call suspend_wakeup_init
 1532               	.LVL122:
 716:../../tmk_core/protocol/lufa/lufa.c **** #ifdef SLEEP_LED_ENABLE
 717:../../tmk_core/protocol/lufa/lufa.c ****     sleep_led_disable();
 718:../../tmk_core/protocol/lufa/lufa.c **** #endif
 719:../../tmk_core/protocol/lufa/lufa.c **** 
 720:../../tmk_core/protocol/lufa/lufa.c ****     // Restore LED status
 721:../../tmk_core/protocol/lufa/lufa.c ****     // BIOS/grub won't recognize/enumerate if led_set() takes long(around 40ms?)
 722:../../tmk_core/protocol/lufa/lufa.c ****     // Converters fall into the case and miss wakeup event(timeout to reply?) in the end.
 723:../../tmk_core/protocol/lufa/lufa.c ****     //led_set(host_keyboard_leds());
 724:../../tmk_core/protocol/lufa/lufa.c ****     // Instead, restore stats and update at keyboard_task() in main loop
 725:../../tmk_core/protocol/lufa/lufa.c ****     keyboard_led_stats = _led_stats;
 1533               		.loc 1 725 0
 1534 0004 8091 0000 		lds r24,_led_stats
 1535 0008 8093 0000 		sts keyboard_led_stats,r24
 1536               	/* epilogue start */
 726:../../tmk_core/protocol/lufa/lufa.c **** }
 1537               		.loc 1 726 0
 1538 000c 0895      		ret
 1539               		.cfi_endproc
 1540               	.LFE130:
 1542               		.section	.text.EVENT_USB_Device_WakeUp,"ax",@progbits
 1543               	.global	EVENT_USB_Device_WakeUp
 1545               	EVENT_USB_Device_WakeUp:
 1546               	.LFB113:
 201:../../tmk_core/protocol/lufa/lufa.c **** #ifdef LUFA_DEBUG
 1547               		.loc 1 201 0
 1548               		.cfi_startproc
 1549               	/* prologue: function */
 1550               	/* frame size = 0 */
 1551               	/* stack size = 0 */
 1552               	.L__stack_usage = 0
 205:../../tmk_core/protocol/lufa/lufa.c **** }
 1553               		.loc 1 205 0
 1554 0000 0C94 0000 		jmp hook_usb_wakeup
 1555               	.LVL123:
 1556               		.cfi_endproc
 1557               	.LFE113:
 1559               		.section	.progmem.data.__c.4928,"a",@progbits
 1562               	__c.4928:
 1563 0000 4B65 7962 		.string	"Keyboard start.\n"
 1563      6F61 7264 
 1563      2073 7461 
 1563      7274 2E0A 
 1563      00
 1564               		.section	.progmem.data.__c.4926,"a",@progbits
 1567               	__c.4926:
 1568 0000 5553 4220 		.string	"USB configured.\n"
 1568      636F 6E66 
 1568      6967 7572 
 1568      6564 2E0A 
 1568      00
 1569               		.section	.progmem.data.__c.4921,"a",@progbits
 1572               	__c.4921:
 1573 0000 0D0A 696E 		.string	"\r\ninit\n"
 1573      6974 0A00 
 1574               		.section	.bss.timeouted.4898,"aw",@nobits
 1577               	timeouted.4898:
 1578 0000 00        		.zero	1
 1579               		.section	.bss.count.4832,"aw",@nobits
 1582               	count.4832:
 1583 0000 00        		.zero	1
 1584               		.section	.progmem.data.__c.4819,"a",@progbits
 1587               	__c.4819:
 1588 0000 5B44 5D00 		.string	"[D]"
 1589               		.section	.progmem.data.__c.4814,"a",@progbits
 1592               	__c.4814:
 1593 0000 5B43 5D00 		.string	"[C]"
 1594               		.section	.bss._led_stats,"aw",@nobits
 1597               	_led_stats:
 1598 0000 00        		.zero	1
 1599               		.section	.bss.console_flush,"aw",@nobits
 1602               	console_flush:
 1603 0000 00        		.zero	1
 1604               	.global	lufa_driver
 1605               		.section	.data.lufa_driver,"aw",@progbits
 1608               	lufa_driver:
 1609 0000 0000      		.word	gs(keyboard_leds)
 1610 0002 0000      		.word	gs(send_keyboard)
 1611 0004 0000      		.word	gs(send_mouse)
 1612 0006 0000      		.word	gs(send_system)
 1613 0008 0000      		.word	gs(send_consumer)
 1614               		.section	.bss.keyboard_report_sent,"aw",@nobits
 1617               	keyboard_report_sent:
 1618 0000 0000 0000 		.zero	8
 1618      0000 0000 
 1619               		.section	.bss.keyboard_led_stats,"aw",@nobits
 1622               	keyboard_led_stats:
 1623 0000 00        		.zero	1
 1624               	.global	keyboard_protocol
 1625               		.section	.data.keyboard_protocol,"aw",@progbits
 1628               	keyboard_protocol:
 1629 0000 01        		.byte	1
 1630               	.global	keyboard_idle
 1631               		.section	.bss.keyboard_idle,"aw",@nobits
 1634               	keyboard_idle:
 1635 0000 00        		.zero	1
 1636               		.text
 1637               	.Letext0:
 1638               		.file 7 "c:\\avr-gcc-7.2.0-x64-mingw\\avr\\include\\stdint.h"
 1639               		.file 8 "../../tmk_core/common/report.h"
 1640               		.file 9 "../../tmk_core/common/host_driver.h"
 1641               		.file 10 "../../tmk_core/common/host.h"
 1642               		.file 11 "../../tmk_core/common/avr/xprintf.h"
 1643               		.file 12 "../../tmk_core/common/debug.h"
 1644               		.file 13 "../../tmk_core/protocol/lufa/LUFA-git/LUFA/Drivers/USB/Core/AVR8/../Device.h"
 1645               		.file 14 "../../tmk_core/protocol/lufa/LUFA-git/LUFA/Drivers/USB/Core/AVR8/../StdRequestType.h"
 1646               		.file 15 "../../tmk_core/protocol/lufa/LUFA-git/LUFA/Drivers/USB/Core/AVR8/../DeviceStandardReq.h"
 1647               		.file 16 "../../tmk_core/protocol/lufa/LUFA-git/LUFA/Drivers/USB/Core/USBTask.h"
 1648               		.file 17 "../../tmk_core/protocol/lufa/LUFA-git/LUFA/Drivers/USB/Core/HostStandardReq.h"
 1649               		.file 18 "c:\\avr-gcc-7.2.0-x64-mingw\\avr\\include\\stdio.h"
 1650               		.file 19 "../../tmk_core/protocol/lufa/LUFA-git/LUFA/Drivers/USB/Class/Device/../Common/HIDClassCo
 1651               		.file 20 "../../tmk_core/protocol/lufa/lufa.h"
 1652               		.file 21 "../../tmk_core/protocol/lufa/LUFA-git/LUFA/Drivers/USB/Core/AVR8/../AVR8/Device_AVR8.h"
 1653               		.file 22 "../../tmk_core/common/suspend.h"
 1654               		.file 23 "../../tmk_core/common/led.h"
 1655               		.file 24 "../../tmk_core/common/matrix.h"
 1656               		.file 25 "../../tmk_core/common/action.h"
 1657               		.file 26 "../../tmk_core/protocol/lufa/LUFA-git/LUFA/Drivers/USB/Core/AVR8/USBController_AVR8.h"
 1658               		.file 27 "../../tmk_core/common/print.h"
 1659               		.file 28 "../../tmk_core/common/keyboard.h"
 1660               		.file 29 "../../tmk_core/protocol/lufa/LUFA-git/LUFA/Drivers/USB/Core/AVR8/../AVR8/EndpointStream_
DEFINED SYMBOLS
                            *ABS*:0000000000000000 lufa.c
C:\cygwin\tmp\ccnH6FVg.s:2      *ABS*:000000000000003e __SP_H__
C:\cygwin\tmp\ccnH6FVg.s:3      *ABS*:000000000000003d __SP_L__
C:\cygwin\tmp\ccnH6FVg.s:4      *ABS*:000000000000003f __SREG__
C:\cygwin\tmp\ccnH6FVg.s:5      *ABS*:0000000000000000 __tmp_reg__
C:\cygwin\tmp\ccnH6FVg.s:6      *ABS*:0000000000000001 __zero_reg__
C:\cygwin\tmp\ccnH6FVg.s:12     .text.keyboard_leds:0000000000000000 keyboard_leds
C:\cygwin\tmp\ccnH6FVg.s:1622   .bss.keyboard_led_stats:0000000000000000 keyboard_led_stats
C:\cygwin\tmp\ccnH6FVg.s:31     .text.sendchar:0000000000000000 sendchar
C:\cygwin\tmp\ccnH6FVg.s:1602   .bss.console_flush:0000000000000000 console_flush
C:\cygwin\tmp\ccnH6FVg.s:1577   .bss.timeouted.4898:0000000000000000 timeouted.4898
C:\cygwin\tmp\ccnH6FVg.s:275    .text.send_consumer:0000000000000000 send_consumer
C:\cygwin\tmp\ccnH6FVg.s:391    .text.send_system:0000000000000000 send_system
C:\cygwin\tmp\ccnH6FVg.s:507    .text.send_mouse:0000000000000000 send_mouse
C:\cygwin\tmp\ccnH6FVg.s:597    .text.send_keyboard:0000000000000000 send_keyboard
C:\cygwin\tmp\ccnH6FVg.s:1617   .bss.keyboard_report_sent:0000000000000000 keyboard_report_sent
C:\cygwin\tmp\ccnH6FVg.s:709    .text.EVENT_USB_Device_Connect:0000000000000000 EVENT_USB_Device_Connect
C:\cygwin\tmp\ccnH6FVg.s:1592   .progmem.data.__c.4814:0000000000000000 __c.4814
C:\cygwin\tmp\ccnH6FVg.s:754    .text.EVENT_USB_Device_Disconnect:0000000000000000 EVENT_USB_Device_Disconnect
C:\cygwin\tmp\ccnH6FVg.s:1587   .progmem.data.__c.4819:0000000000000000 __c.4819
C:\cygwin\tmp\ccnH6FVg.s:778    .text.EVENT_USB_Device_Reset:0000000000000000 EVENT_USB_Device_Reset
C:\cygwin\tmp\ccnH6FVg.s:795    .text.EVENT_USB_Device_StartOfFrame:0000000000000000 EVENT_USB_Device_StartOfFrame
C:\cygwin\tmp\ccnH6FVg.s:1582   .bss.count.4832:0000000000000000 count.4832
C:\cygwin\tmp\ccnH6FVg.s:950    .text.EVENT_USB_Device_ConfigurationChanged:0000000000000000 EVENT_USB_Device_ConfigurationChanged
C:\cygwin\tmp\ccnH6FVg.s:1002   .text.EVENT_USB_Device_ControlRequest:0000000000000000 EVENT_USB_Device_ControlRequest
C:\cygwin\tmp\ccnH6FVg.s:1628   .data.keyboard_protocol:0000000000000000 keyboard_protocol
C:\cygwin\tmp\ccnH6FVg.s:1634   .bss.keyboard_idle:0000000000000000 keyboard_idle
C:\cygwin\tmp\ccnH6FVg.s:1267   .text.hook_early_init:0000000000000000 hook_early_init
C:\cygwin\tmp\ccnH6FVg.s:1267   .text.hook_early_init:0000000000000000 hook_early_init.localalias.0
C:\cygwin\tmp\ccnH6FVg.s:1285   .text.hook_late_init:0000000000000000 hook_late_init
C:\cygwin\tmp\ccnH6FVg.s:1300   .text.hook_usb_suspend_entry:0000000000000000 hook_usb_suspend_entry
C:\cygwin\tmp\ccnH6FVg.s:1597   .bss._led_stats:0000000000000000 _led_stats
C:\cygwin\tmp\ccnH6FVg.s:1329   .text.EVENT_USB_Device_Suspend:0000000000000000 EVENT_USB_Device_Suspend
C:\cygwin\tmp\ccnH6FVg.s:1346   .text.hook_usb_suspend_loop:0000000000000000 hook_usb_suspend_loop
C:\cygwin\tmp\ccnH6FVg.s:1378   .text.startup.main:0000000000000000 main
C:\cygwin\tmp\ccnH6FVg.s:1572   .progmem.data.__c.4921:0000000000000000 __c.4921
C:\cygwin\tmp\ccnH6FVg.s:1567   .progmem.data.__c.4926:0000000000000000 __c.4926
C:\cygwin\tmp\ccnH6FVg.s:1608   .data.lufa_driver:0000000000000000 lufa_driver
C:\cygwin\tmp\ccnH6FVg.s:1562   .progmem.data.__c.4928:0000000000000000 __c.4928
C:\cygwin\tmp\ccnH6FVg.s:1522   .text.hook_usb_wakeup:0000000000000000 hook_usb_wakeup
C:\cygwin\tmp\ccnH6FVg.s:1545   .text.EVENT_USB_Device_WakeUp:0000000000000000 EVENT_USB_Device_WakeUp

UNDEFINED SYMBOLS
USB_DeviceState
Endpoint_Write_Stream_LE
xputs
USB_IsInitialized
USB_Disable
USB_Init
__udivmodqi4
Endpoint_ConfigureEndpoint_Prv
USB_ControlRequest
Endpoint_ClearStatusStage
Endpoint_Write_Control_Stream_LE
clear_keyboard
led_set
matrix_clear
suspend_power_down
USB_Device_RemoteWakeupEnabled
suspend_wakeup_condition
USB_Device_SendRemoteWakeup
print_set_sendchar
keyboard_setup
keyboard_init
host_set_driver
keyboard_task
suspend_wakeup_init
__do_copy_data
__do_clear_bss
